(dp0
(I70
I100
tp1
(dp2
(I0
F0.8
tp3
(dp4
S'c'
p5
F0.0847457627118644
sS'b'
p6
F0.7022917748275607
sS'other'
p7
F0.006051437216338881
ss(F1.6
F2.4
tp8
(dp9
g5
F0.09433962264150944
sg6
F0.5986066452304395
sg7
F0.016340916372957384
ss(F0.8
F1.6
tp10
(dp11
g5
F0.12207792207792208
sg6
F0.672188024622272
sg7
F0.00899708917703096
sss(I600
I1000
tp12
(dp13
(I0
F0.8
tp14
(dp15
g5
I0
sg6
F0.0
sg7
F0.02040816326530612
ss(F1.6
F2.4
tp16
(dp17
g5
F0.0
sg6
F0.0
sg7
F0.0
ss(F0.8
F1.6
tp18
(dp19
g5
F0.0
sg6
F0.6666666666666666
sg7
F0.0
sss(I200
I300
tp20
(dp21
(I0
F0.8
tp22
(dp23
g5
F0.11016949152542373
sg6
F0.658955717118308
sg7
F0.013713080168776372
ss(F1.6
F2.4
tp24
(dp25
g5
F0.07407407407407407
sg6
F0.46543778801843316
sg7
F0.019762845849802372
ss(F0.8
F1.6
tp26
(dp27
g5
F0.061855670103092786
sg6
F0.5984848484848485
sg7
F0.006756756756756757
sss(I100
I140
tp28
(dp29
(I0
F0.8
tp30
(dp31
g5
F0.10305343511450382
sg6
F0.7034474806871901
sg7
F0.006242684354272337
ss(F1.6
F2.4
tp32
(dp33
g5
F0.09467455621301775
sg6
F0.5696505505026328
sg7
F0.017133956386292833
ss(F0.8
F1.6
tp34
(dp35
g5
F0.10964912280701754
sg6
F0.6784409257003654
sg7
F0.007704785077047851
sss(I1000
I-1
tp36
(dp37
(I0
F0.8
tp38
(dp39
g5
I0
sg6
I0
sg7
F0.0
ss(F1.6
F2.4
tp40
(dp41
g5
I0
sg6
I0
sg7
I0
ss(F0.8
F1.6
tp42
(dp43
g5
I0
sg6
I0
sg7
F0.0
sss(I50
I70
tp44
(dp45
(I0
F0.8
tp46
(dp47
g5
F0.10357815442561205
sg6
F0.6846732732285224
sg7
F0.007443718228031954
ss(F1.6
F2.4
tp48
(dp49
g5
F0.13496932515337423
sg6
F0.5782881002087683
sg7
F0.015593561368209255
ss(F0.8
F1.6
tp50
(dp51
g5
F0.08163265306122448
sg6
F0.6499732477260567
sg7
F0.00896091515729266
sss(I300
I600
tp52
(dp53
(I0
F0.8
tp54
(dp55
g5
F0.23333333333333334
sg6
F0.5968992248062015
sg7
F0.002136752136752137
ss(F1.6
F2.4
tp56
(dp57
g5
F0.07692307692307693
sg6
F0.25
sg7
F0.024305555555555556
ss(F0.8
F1.6
tp58
(dp59
g5
F0.045454545454545456
sg6
F0.5597014925373134
sg7
F0.012903225806451613
sss(I30
I50
tp60
(dp61
(I0
F0.8
tp62
(dp63
g5
F0.12004175365344467
sg6
F0.6502202036884118
sg7
F0.008807045636509208
ss(F1.6
F2.4
tp64
(dp65
g5
F0.08079268292682927
sg6
F0.5300937766410913
sg7
F0.014303877940241577
ss(F0.8
F1.6
tp66
(dp67
g5
F0.10449574726609964
sg6
F0.6087969434349082
sg7
F0.00964658423221959
sss(I140
I200
tp68
(dp69
(I0
F0.8
tp70
(dp71
g5
F0.10227272727272728
sg6
F0.686218302094818
sg7
F0.008428657435279952
ss(F1.6
F2.4
tp72
(dp73
g5
F0.13793103448275862
sg6
F0.5933179723502304
sg7
F0.017678708685626442
ss(F0.8
F1.6
tp74
(dp75
g5
F0.13793103448275862
sg6
F0.6365951255001819
sg7
F0.00954653937947494
sss.