(dp0
(I70
I100
tp1
(dp2
(I0
F0.8
tp3
(dp4
S'c'
p5
F0.11433305716652858
sS'b'
p6
F0.7485717651216208
sS'other'
p7
F0.00710506424792139
ss(F1.6
F2.4
tp8
(dp9
g5
F0.10885341074020319
sg6
F0.6348160964447173
sg7
F0.013107344632768362
ss(F2.4
I-1
tp10
(dp11
g5
I0
sg6
I0
sg7
I0
ss(F0.8
F1.6
tp12
(dp13
g5
F0.1040582726326743
sg6
F0.7211107202532758
sg7
F0.01044841097083152
sss(I600
I1000
tp14
(dp15
(I0
F0.8
tp16
(dp17
g5
F0.0
sg6
F0.7142857142857143
sg7
F0.0
ss(F1.6
F2.4
tp18
(dp19
g5
I0
sg6
I0
sg7
F0.08333333333333333
ss(F2.4
I-1
tp20
(dp21
g5
I0
sg6
I0
sg7
I0
ss(F0.8
F1.6
tp22
(dp23
g5
F0.0
sg6
F0.6666666666666666
sg7
F0.08571428571428572
sss(I200
I300
tp24
(dp25
(I0
F0.8
tp26
(dp27
g5
F0.11538461538461539
sg6
F0.7338541666666667
sg7
F0.010135135135135136
ss(F1.6
F2.4
tp28
(dp29
g5
F0.09448818897637795
sg6
F0.5537109375
sg7
F0.02056698165647582
ss(F2.4
I-1
tp30
(dp31
g5
I0
sg6
I0
sg7
I0
ss(F0.8
F1.6
tp32
(dp33
g5
F0.07755102040816327
sg6
F0.6806684733514001
sg7
F0.018260869565217393
sss(I100
I140
tp34
(dp35
(I0
F0.8
tp36
(dp37
g5
F0.10165184243964422
sg6
F0.7557514323490524
sg7
F0.0067430025445292625
ss(F1.6
F2.4
tp38
(dp39
g5
F0.09462365591397849
sg6
F0.6236994219653179
sg7
F0.01609694338940134
ss(F2.4
I-1
tp40
(dp41
g5
I0
sg6
I0
sg7
I0
ss(F0.8
F1.6
tp42
(dp43
g5
F0.09984639016897082
sg6
F0.7231311706629056
sg7
F0.010770975056689343
sss(I1000
I-1
tp44
(dp45
(I0
F0.8
tp46
(dp47
g5
I0
sg6
I0
sg7
I0
ss(F1.6
F2.4
tp48
(dp49
g5
I0
sg6
I0
sg7
I0
ss(F2.4
I-1
tp50
(dp51
g5
I0
sg6
I0
sg7
I0
ss(F0.8
F1.6
tp52
(dp53
g5
I0
sg6
I0
sg7
F0.0
sss(I50
I70
tp54
(dp55
(I0
F0.8
tp56
(dp57
g5
F0.09600515463917526
sg6
F0.7380315772177991
sg7
F0.007182201101630845
ss(F1.6
F2.4
tp58
(dp59
g5
F0.07749469214437367
sg6
F0.6304126460747709
sg7
F0.01438316758444974
ss(F2.4
I-1
tp60
(dp61
g5
I0
sg6
I0
sg7
I0
ss(F0.8
F1.6
tp62
(dp63
g5
F0.1110260336906585
sg6
F0.7061953052050987
sg7
F0.010228902887793925
sss(I300
I600
tp64
(dp65
(I0
F0.8
tp66
(dp67
g5
F0.14130434782608695
sg6
F0.673616680032077
sg7
F0.012971698113207548
ss(F1.6
F2.4
tp68
(dp69
g5
F0.11428571428571428
sg6
F0.5245901639344263
sg7
F0.01768172888015717
ss(F2.4
I-1
tp70
(dp71
g5
I0
sg6
I0
sg7
I0
ss(F0.8
F1.6
tp72
(dp73
g5
F0.10606060606060606
sg6
F0.6240126382306477
sg7
F0.028037383177570093
sss(I30
I50
tp74
(dp75
(I0
F0.8
tp76
(dp77
g5
F0.12335526315789473
sg6
F0.7035413108095385
sg7
F0.008608195353331283
ss(F1.6
F2.4
tp78
(dp79
g5
F0.11578426521523998
sg6
F0.5940023878081326
sg7
F0.016202515400410678
ss(F2.4
I-1
tp80
(dp81
g5
I0
sg6
I0
sg7
I0
ss(F0.8
F1.6
tp82
(dp83
g5
F0.10989838163342115
sg6
F0.6742139051048429
sg7
F0.012270563376696112
sss(I140
I200
tp84
(dp85
(I0
F0.8
tp86
(dp87
g5
F0.1643835616438356
sg6
F0.7504266939750811
sg7
F0.00873083475298126
ss(F1.6
F2.4
tp88
(dp89
g5
F0.08163265306122448
sg6
F0.6154575628259839
sg7
F0.014772727272727272
ss(F2.4
I-1
tp90
(dp91
g5
I0
sg6
I0
sg7
I0
ss(F0.8
F1.6
tp92
(dp93
g5
F0.11512415349887133
sg6
F0.7143641856632793
sg7
F0.014106583072100314
sss.