(dp0
(I70
I100
tp1
(dp2
(I0
F0.8
tp3
(dp4
S'c'
p5
F0.13661911316613218
sS'b'
p6
F0.7991775785859967
sS'other'
p7
F0.007384935784782026
ss(F1.6
F2.4
tp8
(dp9
g5
F0.132527851383352
sg6
F0.7158078221902657
sg7
F0.016016638457541248
ss(F2.4
I-1
tp10
(dp11
g5
I0
sg6
I0
sg7
I0
ss(F0.8
F1.6
tp12
(dp13
g5
F0.15773862611178532
sg6
F0.7663956836171724
sg7
F0.009707605924791626
sss(I600
I1000
tp14
(dp15
(I0
F0.8
tp16
(dp17
g5
F0.14285714285714285
sg6
F0.6004016064257028
sg7
F0.0
ss(F1.6
F2.4
tp18
(dp19
g5
F0.0
sg6
I0
sg7
F0.0
ss(F2.4
I-1
tp20
(dp21
g5
I0
sg6
I0
sg7
I0
ss(F0.8
F1.6
tp22
(dp23
g5
F0.0
sg6
F0.25152446682598256
sg7
F0.0
sss(I200
I300
tp24
(dp25
(I0
F0.8
tp26
(dp27
g5
F0.18459039391590057
sg6
F0.7808213988585386
sg7
F0.010622164293520696
ss(F1.6
F2.4
tp28
(dp29
g5
F0.10441138084051162
sg6
F0.6194222234028425
sg7
F0.024355171906422012
ss(F2.4
I-1
tp30
(dp31
g5
I0
sg6
I0
sg7
I0
ss(F0.8
F1.6
tp32
(dp33
g5
F0.1302020296061819
sg6
F0.7032351992740863
sg7
F0.009331831726156042
sss(I100
I140
tp34
(dp35
(I0
F0.8
tp36
(dp37
g5
F0.15541319120301028
sg6
F0.8062993993251197
sg7
F0.009263009335290694
ss(F1.6
F2.4
tp38
(dp39
g5
F0.15029855053103366
sg6
F0.7095474691508057
sg7
F0.018906695695048947
ss(F2.4
I-1
tp40
(dp41
g5
I0
sg6
I0
sg7
I0
ss(F0.8
F1.6
tp42
(dp43
g5
F0.13074097106603677
sg6
F0.7719305191322501
sg7
F0.009097828328471523
sss(I1000
I-1
tp44
(dp45
(I0
F0.8
tp46
(dp47
g5
F0.0
sg6
I0
sg7
F0.0
ss(F1.6
F2.4
tp48
(dp49
g5
I0
sg6
I0
sg7
I0
ss(F2.4
I-1
tp50
(dp51
g5
I0
sg6
I0
sg7
I0
ss(F0.8
F1.6
tp52
(dp53
g5
I0
sg6
I0
sg7
F0.0
sss(I50
I70
tp54
(dp55
(I0
F0.8
tp56
(dp57
g5
F0.124191158279395
sg6
F0.7829265525134308
sg7
F0.006594897777632128
ss(F1.6
F2.4
tp58
(dp59
g5
F0.1230997019996495
sg6
F0.7186804430047646
sg7
F0.015334432455391457
ss(F2.4
I-1
tp60
(dp61
g5
I0
sg6
I0
sg7
I0
ss(F0.8
F1.6
tp62
(dp63
g5
F0.13175769567479037
sg6
F0.7526462596959754
sg7
F0.007592877157323261
sss(I300
I600
tp64
(dp65
(I0
F0.8
tp66
(dp67
g5
F0.11357435197817191
sg6
F0.6883975401602767
sg7
F0.006140435539565651
ss(F1.6
F2.4
tp68
(dp69
g5
F0.060642813826561545
sg6
F0.4769160165213401
sg7
F0.024427905897520166
ss(F2.4
I-1
tp70
(dp71
g5
I0
sg6
I0
sg7
I0
ss(F0.8
F1.6
tp72
(dp73
g5
F0.0678195998643608
sg6
F0.6010366557772686
sg7
F0.015160623390846997
sss(I30
I50
tp74
(dp75
(I0
F0.8
tp76
(dp77
g5
F0.11731056296209685
sg6
F0.7482686673650616
sg7
F0.006512795873764525
ss(F1.6
F2.4
tp78
(dp79
g5
F0.13626369112174752
sg6
F0.6874895429512056
sg7
F0.01572632226339287
ss(F2.4
I-1
tp80
(dp81
g5
I0
sg6
I0
sg7
I0
ss(F0.8
F1.6
tp82
(dp83
g5
F0.13619719816200018
sg6
F0.7213686386514029
sg7
F0.009041394186576734
sss(I140
I200
tp84
(dp85
(I0
F0.8
tp86
(dp87
g5
F0.14363225669915639
sg6
F0.8015741776044971
sg7
F0.008362045853089736
ss(F1.6
F2.4
tp88
(dp89
g5
F0.1281882145998241
sg6
F0.6859880054943259
sg7
F0.015926329320344348
ss(F2.4
I-1
tp90
(dp91
g5
I0
sg6
I0
sg7
I0
ss(F0.8
F1.6
tp92
(dp93
g5
F0.13937803159010778
sg6
F0.7555999617718084
sg7
F0.009334302651942333
sss.