(dp0
(I70
I100
tp1
(dp2
(I0
F0.8
tp3
(dp4
S'c'
p5
F0.1262668983092048
sS'b'
p6
F0.7964699523775493
sS'other'
p7
F0.005792140324643982
ss(F1.6
F2.4
tp8
(dp9
g5
F0.12929608793521374
sg6
F0.7252932856691034
sg7
F0.019228700750610516
ss(F2.4
I-1
tp10
(dp11
g5
I0
sg6
I0
sg7
I0
ss(F0.8
F1.6
tp12
(dp13
g5
F0.15772407984615908
sg6
F0.7726081490275937
sg7
F0.01166965794610345
sss(I600
I1000
tp14
(dp15
(I0
F0.8
tp16
(dp17
g5
F0.023304591004427867
sg6
F0.2998493219487694
sg7
F0.0
ss(F1.6
F2.4
tp18
(dp19
g5
F0.0
sg6
F0.0
sg7
F0.03494463023339517
ss(F2.4
I-1
tp20
(dp21
g5
I0
sg6
I0
sg7
I0
ss(F0.8
F1.6
tp22
(dp23
g5
F0.0
sg6
F0.27297543221110093
sg7
F0.0036404258902751063
sss(I200
I300
tp24
(dp25
(I0
F0.8
tp26
(dp27
g5
F0.11640328474429461
sg6
F0.7554832670811041
sg7
F0.00783989185760278
ss(F1.6
F2.4
tp28
(dp29
g5
F0.11278886359336099
sg6
F0.5889034271069665
sg7
F0.017479898921292255
ss(F2.4
I-1
tp30
(dp31
g5
I0
sg6
I0
sg7
I0
ss(F0.8
F1.6
tp32
(dp33
g5
F0.1301703092878272
sg6
F0.6870748495436023
sg7
F0.011945966582247006
sss(I100
I140
tp34
(dp35
(I0
F0.8
tp36
(dp37
g5
F0.13701736325289238
sg6
F0.7996474047817405
sg7
F0.007697850941608663
ss(F1.6
F2.4
tp38
(dp39
g5
F0.13581463361968202
sg6
F0.7089965017963683
sg7
F0.019909872903466415
ss(F2.4
I-1
tp40
(dp41
g5
I0
sg6
I0
sg7
I0
ss(F0.8
F1.6
tp42
(dp43
g5
F0.1568197636243152
sg6
F0.7748884786812242
sg7
F0.011983094452531866
sss(I1000
I-1
tp44
(dp45
(I0
F0.8
tp46
(dp47
g5
F0.0
sg6
F0.0
sg7
F0.0
ss(F1.6
F2.4
tp48
(dp49
g5
I0
sg6
I0
sg7
F0.0
ss(F2.4
I-1
tp50
(dp51
g5
I0
sg6
I0
sg7
I0
ss(F0.8
F1.6
tp52
(dp53
g5
F0.0
sg6
I0
sg7
F0.0
sss(I50
I70
tp54
(dp55
(I0
F0.8
tp56
(dp57
g5
F0.10996553329418375
sg6
F0.7772583518263523
sg7
F0.005965670033394506
ss(F1.6
F2.4
tp58
(dp59
g5
F0.12922853043255503
sg6
F0.7100423772758091
sg7
F0.01666959602672127
ss(F2.4
I-1
tp60
(dp61
g5
I0
sg6
I0
sg7
I0
ss(F0.8
F1.6
tp62
(dp63
g5
F0.13180889411712224
sg6
F0.7587975638245501
sg7
F0.010911131821622299
sss(I300
I600
tp64
(dp65
(I0
F0.8
tp66
(dp67
g5
F0.13929853599607564
sg6
F0.6573063898703226
sg7
F0.006766710217551024
ss(F1.6
F2.4
tp68
(dp69
g5
F0.08645634727498622
sg6
F0.3837815986535972
sg7
F0.012186829270635479
ss(F2.4
I-1
tp70
(dp71
g5
I0
sg6
I0
sg7
I0
ss(F0.8
F1.6
tp72
(dp73
g5
F0.09027831584065703
sg6
F0.5651172126372926
sg7
F0.008730936652228849
sss(I30
I50
tp74
(dp75
(I0
F0.8
tp76
(dp77
g5
F0.1030471744778846
sg6
F0.7252893621332095
sg7
F0.0048159200415827524
ss(F1.6
F2.4
tp78
(dp79
g5
F0.11527239253892904
sg6
F0.6576309937488765
sg7
F0.015445856048903972
ss(F2.4
I-1
tp80
(dp81
g5
I0
sg6
I0
sg7
I0
ss(F0.8
F1.6
tp82
(dp83
g5
F0.11980829717286072
sg6
F0.7043692743622004
sg7
F0.010827178536331942
sss(I140
I200
tp84
(dp85
(I0
F0.8
tp86
(dp87
g5
F0.12078282807340819
sg6
F0.788976667098217
sg7
F0.007561642350709947
ss(F1.6
F2.4
tp88
(dp89
g5
F0.16473186117224864
sg6
F0.6595574246074459
sg7
F0.020766955934432094
ss(F2.4
I-1
tp90
(dp91
g5
I0
sg6
I0
sg7
I0
ss(F0.8
F1.6
tp92
(dp93
g5
F0.1664992799830933
sg6
F0.752888209916234
sg7
F0.012055765304010356
sss.