(dp0
(I70
I100
tp1
(dp2
(I0
F0.8
tp3
(dp4
S'c'
p5
F0.13514732232592605
sS'b'
p6
F0.7958446345695538
sS'other'
p7
F0.005542847188141217
ss(F1.6
F2.4
tp8
(dp9
g5
F0.1265196446100897
sg6
F0.7264262386379242
sg7
F0.018853500223082048
ss(F2.4
I-1
tp10
(dp11
g5
I0
sg6
I0
sg7
I0
ss(F0.8
F1.6
tp12
(dp13
g5
F0.1619502959015955
sg6
F0.7736969187092408
sg7
F0.012354362709006084
sss(I600
I1000
tp14
(dp15
(I0
F0.8
tp16
(dp17
g5
F0.028636884306987402
sg6
F0.33296151701059673
sg7
F0.0
ss(F1.6
F2.4
tp18
(dp19
g5
F0.0
sg6
I0
sg7
F0.041741976148634806
ss(F2.4
I-1
tp20
(dp21
g5
I0
sg6
I0
sg7
I0
ss(F0.8
F1.6
tp22
(dp23
g5
F0.0
sg6
F0.3337041156840934
sg7
F0.00439367118028507
sss(I200
I300
tp24
(dp25
(I0
F0.8
tp26
(dp27
g5
F0.11931278517140485
sg6
F0.755117916260488
sg7
F0.008022608788201263
ss(F1.6
F2.4
tp28
(dp29
g5
F0.12459594029735738
sg6
F0.5886394706563662
sg7
F0.018190903436710468
ss(F2.4
I-1
tp30
(dp31
g5
I0
sg6
I0
sg7
I0
ss(F0.8
F1.6
tp32
(dp33
g5
F0.14732364632835077
sg6
F0.6836191936674282
sg7
F0.013280710160851502
sss(I100
I140
tp34
(dp35
(I0
F0.8
tp36
(dp37
g5
F0.14556966826546588
sg6
F0.7991193200836039
sg7
F0.0074181174286709
ss(F1.6
F2.4
tp38
(dp39
g5
F0.12958620097571566
sg6
F0.7081818875980282
sg7
F0.021097912262109067
ss(F2.4
I-1
tp40
(dp41
g5
I0
sg6
I0
sg7
I0
ss(F0.8
F1.6
tp42
(dp43
g5
F0.14177808484211954
sg6
F0.7744695228863533
sg7
F0.011964893466379902
sss(I1000
I-1
tp44
(dp45
(I0
F0.8
tp46
(dp47
g5
F0.0
sg6
I0
sg7
F0.0
ss(F1.6
F2.4
tp48
(dp49
g5
I0
sg6
I0
sg7
F0.0
ss(F2.4
I-1
tp50
(dp51
g5
I0
sg6
I0
sg7
I0
ss(F0.8
F1.6
tp52
(dp53
g5
F0.0
sg6
I0
sg7
F0.0
sss(I50
I70
tp54
(dp55
(I0
F0.8
tp56
(dp57
g5
F0.11444646792821664
sg6
F0.7775828056226888
sg7
F0.006068910758069499
ss(F1.6
F2.4
tp58
(dp59
g5
F0.13742932811976405
sg6
F0.7134668986267974
sg7
F0.016888538776685197
ss(F2.4
I-1
tp60
(dp61
g5
I0
sg6
I0
sg7
I0
ss(F0.8
F1.6
tp62
(dp63
g5
F0.1391335653034535
sg6
F0.759712455385511
sg7
F0.011178691231570444
sss(I300
I600
tp64
(dp65
(I0
F0.8
tp66
(dp67
g5
F0.1382595058267979
sg6
F0.6519312366063401
sg7
F0.006193595813650884
ss(F1.6
F2.4
tp68
(dp69
g5
F0.11284360614417616
sg6
F0.37396775609780675
sg7
F0.011557609788749078
ss(F2.4
I-1
tp70
(dp71
g5
I0
sg6
I0
sg7
I0
ss(F0.8
F1.6
tp72
(dp73
g5
F0.08195146710266901
sg6
F0.5535053126704241
sg7
F0.00855637159971515
sss(I30
I50
tp74
(dp75
(I0
F0.8
tp76
(dp77
g5
F0.10144847315665315
sg6
F0.7264084072558692
sg7
F0.004867087219588518
ss(F1.6
F2.4
tp78
(dp79
g5
F0.1171708585718473
sg6
F0.6564560365668043
sg7
F0.01524560315534382
ss(F2.4
I-1
tp80
(dp81
g5
I0
sg6
I0
sg7
I0
ss(F0.8
F1.6
tp82
(dp83
g5
F0.11723130320771859
sg6
F0.7038841494971357
sg7
F0.010837290580028653
sss(I140
I200
tp84
(dp85
(I0
F0.8
tp86
(dp87
g5
F0.12369175807525123
sg6
F0.7923337871369622
sg7
F0.007784095008147916
ss(F1.6
F2.4
tp88
(dp89
g5
F0.18517313864117735
sg6
F0.6595625542839983
sg7
F0.019699510258368632
ss(F2.4
I-1
tp90
(dp91
g5
I0
sg6
I0
sg7
I0
ss(F0.8
F1.6
tp92
(dp93
g5
F0.14690140349057623
sg6
F0.7531067638549028
sg7
F0.011571426154142013
sss.