(dp0
(I70
I100
tp1
(dp2
(I0
F0.8
tp3
(dp4
S'c'
p5
F0.07017543859649122
sS'b'
p6
F0.751955589200101
sS'other'
p7
F0.0050933786078098476
ss(F1.6
F2.4
tp8
(dp9
g5
F0.14925373134328357
sg6
F0.6338624338624339
sg7
F0.01744186046511628
ss(F2.4
I-1
tp10
(dp11
g5
I0
sg6
I0
sg7
I0
ss(F0.8
F1.6
tp12
(dp13
g5
F0.2169811320754717
sg6
F0.7240235814296242
sg7
F0.0146484375
sss(I600
I1000
tp14
(dp15
(I0
F0.8
tp16
(dp17
g5
F0.0
sg6
F1.0
sg7
F0.0
ss(F1.6
F2.4
tp18
(dp19
g5
I0
sg6
I0
sg7
F0.0
ss(F2.4
I-1
tp20
(dp21
g5
I0
sg6
I0
sg7
I0
ss(F0.8
F1.6
tp22
(dp23
g5
I0
sg6
F0.0
sg7
F0.0
sss(I200
I300
tp24
(dp25
(I0
F0.8
tp26
(dp27
g5
F0.11904761904761904
sg6
F0.7134831460674157
sg7
F0.014545454545454545
ss(F1.6
F2.4
tp28
(dp29
g5
F0.3333333333333333
sg6
F0.6956521739130435
sg7
F0.014925373134328358
ss(F2.4
I-1
tp30
(dp31
g5
I0
sg6
I0
sg7
I0
ss(F0.8
F1.6
tp32
(dp33
g5
F0.1
sg6
F0.6534653465346535
sg7
F0.015748031496062992
sss(I100
I140
tp34
(dp35
(I0
F0.8
tp36
(dp37
g5
F0.11842105263157894
sg6
F0.7597611391823611
sg7
F0.008522727272727272
ss(F1.6
F2.4
tp38
(dp39
g5
F0.08333333333333333
sg6
F0.640074211502783
sg7
F0.016822429906542057
ss(F2.4
I-1
tp40
(dp41
g5
I0
sg6
I0
sg7
I0
ss(F0.8
F1.6
tp42
(dp43
g5
F0.07272727272727272
sg6
F0.7399135446685879
sg7
F0.0171606864274571
sss(I1000
I-1
tp44
(dp45
(I0
F0.8
tp46
(dp47
g5
I0
sg6
I0
sg7
F0.0
ss(F1.6
F2.4
tp48
(dp49
g5
I0
sg6
I0
sg7
I0
ss(F2.4
I-1
tp50
(dp51
g5
I0
sg6
I0
sg7
I0
ss(F0.8
F1.6
tp52
(dp53
g5
I0
sg6
I0
sg7
I0
sss(I50
I70
tp54
(dp55
(I0
F0.8
tp56
(dp57
g5
F0.10778443113772455
sg6
F0.7222222222222222
sg7
F0.006920415224913495
ss(F1.6
F2.4
tp58
(dp59
g5
F0.05555555555555555
sg6
F0.6243386243386243
sg7
F0.013146362839614373
ss(F2.4
I-1
tp60
(dp61
g5
I0
sg6
I0
sg7
I0
ss(F0.8
F1.6
tp62
(dp63
g5
F0.08270676691729323
sg6
F0.7081324333011894
sg7
F0.013422818791946308
sss(I300
I600
tp64
(dp65
(I0
F0.8
tp66
(dp67
g5
F0.21052631578947367
sg6
F0.43548387096774194
sg7
F0.006369426751592357
ss(F1.6
F2.4
tp68
(dp69
g5
F0.0
sg6
F0.3333333333333333
sg7
F0.039603960396039604
ss(F2.4
I-1
tp70
(dp71
g5
I0
sg6
I0
sg7
I0
ss(F0.8
F1.6
tp72
(dp73
g5
F0.08333333333333333
sg6
F0.5925925925925926
sg7
F0.072992700729927
sss(I30
I50
tp74
(dp75
(I0
F0.8
tp76
(dp77
g5
F0.11077844311377245
sg6
F0.6774003534262714
sg7
F0.007862407862407862
ss(F1.6
F2.4
tp78
(dp79
g5
F0.10674157303370786
sg6
F0.5742268041237113
sg7
F0.014181818181818183
ss(F2.4
I-1
tp80
(dp81
g5
I0
sg6
I0
sg7
I0
ss(F0.8
F1.6
tp82
(dp83
g5
F0.14385964912280702
sg6
F0.655154091392136
sg7
F0.010817941952506595
sss(I140
I200
tp84
(dp85
(I0
F0.8
tp86
(dp87
g5
F0.22448979591836735
sg6
F0.7606837606837606
sg7
F0.019736842105263157
ss(F1.6
F2.4
tp88
(dp89
g5
F0.03571428571428571
sg6
F0.635
sg7
F0.020833333333333332
ss(F2.4
I-1
tp90
(dp91
g5
I0
sg6
I0
sg7
I0
ss(F0.8
F1.6
tp92
(dp93
g5
F0.1951219512195122
sg6
F0.7377049180327869
sg7
F0.017326732673267328
sss.