(dp0
(I70
I100
tp1
(dp2
(I0
F0.8
tp3
(dp4
S'c'
p5
F0.0
sS'b'
p6
F0.8344481605351171
sS'other'
p7
F0.0
ss(F1.6
F2.4
tp8
(dp9
g5
I0
sg6
I0
sg7
F0.0
ss(F2.4
I-1
tp10
(dp11
g5
I0
sg6
I0
sg7
I0
ss(F0.8
F1.6
tp12
(dp13
g5
I0
sg6
I0
sg7
F0.0
sss(I600
I1000
tp14
(dp15
(I0
F0.8
tp16
(dp17
g5
I0
sg6
I0
sg7
I0
ss(F1.6
F2.4
tp18
(dp19
g5
I0
sg6
I0
sg7
I0
ss(F2.4
I-1
tp20
(dp21
g5
I0
sg6
I0
sg7
I0
ss(F0.8
F1.6
tp22
(dp23
g5
I0
sg6
I0
sg7
I0
sss(I200
I300
tp24
(dp25
(I0
F0.8
tp26
(dp27
g5
I0
sg6
I0
sg7
I0
ss(F1.6
F2.4
tp28
(dp29
g5
I0
sg6
I0
sg7
I0
ss(F2.4
I-1
tp30
(dp31
g5
I0
sg6
I0
sg7
I0
ss(F0.8
F1.6
tp32
(dp33
g5
I0
sg6
I0
sg7
I0
sss(I100
I140
tp34
(dp35
(I0
F0.8
tp36
(dp37
g5
F1.0
sg6
F0.5025125628140703
sg7
F0.0
ss(F1.6
F2.4
tp38
(dp39
g5
I0
sg6
F0.0
sg7
I0
ss(F2.4
I-1
tp40
(dp41
g5
I0
sg6
I0
sg7
I0
ss(F0.8
F1.6
tp42
(dp43
g5
F0.0
sg6
F0.5
sg7
F0.0
sss(I1000
I-1
tp44
(dp45
(I0
F0.8
tp46
(dp47
g5
I0
sg6
I0
sg7
I0
ss(F1.6
F2.4
tp48
(dp49
g5
I0
sg6
I0
sg7
I0
ss(F2.4
I-1
tp50
(dp51
g5
I0
sg6
I0
sg7
I0
ss(F0.8
F1.6
tp52
(dp53
g5
I0
sg6
I0
sg7
I0
sss(I50
I70
tp54
(dp55
(I0
F0.8
tp56
(dp57
g5
F0.0
sg6
F1.0
sg7
F0.0
ss(F1.6
F2.4
tp58
(dp59
g5
I0
sg6
I0
sg7
F0.0
ss(F2.4
I-1
tp60
(dp61
g5
I0
sg6
I0
sg7
I0
ss(F0.8
F1.6
tp62
(dp63
g5
I0
sg6
F1.0
sg7
F0.0
sss(I300
I600
tp64
(dp65
(I0
F0.8
tp66
(dp67
g5
I0
sg6
I0
sg7
I0
ss(F1.6
F2.4
tp68
(dp69
g5
I0
sg6
I0
sg7
I0
ss(F2.4
I-1
tp70
(dp71
g5
I0
sg6
I0
sg7
I0
ss(F0.8
F1.6
tp72
(dp73
g5
I0
sg6
I0
sg7
I0
sss(I30
I50
tp74
(dp75
(I0
F0.8
tp76
(dp77
g5
F0.0
sg6
F1.0
sg7
F0.0
ss(F1.6
F2.4
tp78
(dp79
g5
I0
sg6
F1.0
sg7
F0.0
ss(F2.4
I-1
tp80
(dp81
g5
I0
sg6
I0
sg7
I0
ss(F0.8
F1.6
tp82
(dp83
g5
I0
sg6
I0
sg7
F0.0
sss(I140
I200
tp84
(dp85
(I0
F0.8
tp86
(dp87
g5
I0
sg6
I0
sg7
F0.0
ss(F1.6
F2.4
tp88
(dp89
g5
I0
sg6
I0
sg7
F0.0
ss(F2.4
I-1
tp90
(dp91
g5
I0
sg6
I0
sg7
I0
ss(F0.8
F1.6
tp92
(dp93
g5
I0
sg6
F1.0
sg7
I0
sss.