(dp0
(I70
I100
tp1
(dp2
(I0
F0.8
tp3
(dp4
S'c'
p5
F0.10223874080007617
sS'b'
p6
F0.7576274043413931
sS'other'
p7
F0.00712841562084709
ss(F1.6
F2.4
tp8
(dp9
g5
F0.10181975736568458
sg6
F0.6426741100027455
sg7
F0.01363599018839114
ss(F2.4
I-1
tp10
(dp11
g5
I0
sg6
I0
sg7
I0
ss(F0.8
F1.6
tp12
(dp13
g5
F0.11572373254959588
sg6
F0.723130043691531
sg7
F0.007895581926796085
sss(I600
I1000
tp14
(dp15
(I0
F0.8
tp16
(dp17
g5
F0.1702127659574468
sg6
F0.5588235294117647
sg7
F0.03559870550161812
ss(F1.6
F2.4
tp18
(dp19
g5
F0.6
sg6
F0.6666666666666666
sg7
F0.07865168539325842
ss(F2.4
I-1
tp20
(dp21
g5
I0
sg6
I0
sg7
I0
ss(F0.8
F1.6
tp22
(dp23
g5
F0.12121212121212122
sg6
F0.3333333333333333
sg7
F0.037815126050420166
sss(I200
I300
tp24
(dp25
(I0
F0.8
tp26
(dp27
g5
F0.1325
sg6
F0.7338781907747425
sg7
F0.011579994748472381
ss(F1.6
F2.4
tp28
(dp29
g5
F0.07093821510297482
sg6
F0.5392038600723763
sg7
F0.01854943424225561
ss(F2.4
I-1
tp30
(dp31
g5
I0
sg6
I0
sg7
I0
ss(F0.8
F1.6
tp32
(dp33
g5
F0.14285714285714285
sg6
F0.6766826923076923
sg7
F0.017510648367250355
sss(I100
I140
tp34
(dp35
(I0
F0.8
tp36
(dp37
g5
F0.11206495724392279
sg6
F0.7636906892419739
sg7
F0.006750958292808513
ss(F1.6
F2.4
tp38
(dp39
g5
F0.11022044088176353
sg6
F0.6358529344599223
sg7
F0.016740972811442944
ss(F2.4
I-1
tp40
(dp41
g5
I0
sg6
I0
sg7
I0
ss(F0.8
F1.6
tp42
(dp43
g5
F0.2547690192025774
sg6
F0.7193961073047708
sg7
F0.009415623861013243
sss(I1000
I-1
tp44
(dp45
(I0
F0.8
tp46
(dp47
g5
F0.0
sg6
F0.0
sg7
F0.045454545454545456
ss(F1.6
F2.4
tp48
(dp49
g5
I0
sg6
I0
sg7
F0.0
ss(F2.4
I-1
tp50
(dp51
g5
I0
sg6
I0
sg7
I0
ss(F0.8
F1.6
tp52
(dp53
g5
I0
sg6
F0.0
sg7
F0.0
sss(I50
I70
tp54
(dp55
(I0
F0.8
tp56
(dp57
g5
F0.10565961889751502
sg6
F0.7388315391910326
sg7
F0.006665098707558437
ss(F1.6
F2.4
tp58
(dp59
g5
F0.10590500641848524
sg6
F0.6384701391834059
sg7
F0.015828517185008644
ss(F2.4
I-1
tp60
(dp61
g5
I0
sg6
I0
sg7
I0
ss(F0.8
F1.6
tp62
(dp63
g5
F0.11672926899739959
sg6
F0.710736888514303
sg7
F0.00931415918844573
sss(I300
I600
tp64
(dp65
(I0
F0.8
tp66
(dp67
g5
F0.13191489361702127
sg6
F0.679384203480589
sg7
F0.016794762311414746
ss(F1.6
F2.4
tp68
(dp69
g5
F0.1464968152866242
sg6
F0.4742268041237113
sg7
F0.030571555161719097
ss(F2.4
I-1
tp70
(dp71
g5
I0
sg6
I0
sg7
I0
ss(F0.8
F1.6
tp72
(dp73
g5
F0.1226158038147139
sg6
F0.5846153846153846
sg7
F0.02295997517840521
sss(I30
I50
tp74
(dp75
(I0
F0.8
tp76
(dp77
g5
F0.12400220203688411
sg6
F0.6956155423652172
sg7
F0.008941798141069402
ss(F1.6
F2.4
tp78
(dp79
g5
F0.09685580751926806
sg6
F0.579839750581246
sg7
F0.016814873752644094
ss(F2.4
I-1
tp80
(dp81
g5
I0
sg6
I0
sg7
I0
ss(F0.8
F1.6
tp82
(dp83
g5
F0.12814538676607642
sg6
F0.6629146500032194
sg7
F0.011959501216351073
sss(I140
I200
tp84
(dp85
(I0
F0.8
tp86
(dp87
g5
F0.11464968152866242
sg6
F0.7620281765018607
sg7
F0.0072250468290072254
ss(F1.6
F2.4
tp88
(dp89
g5
F0.10348977135980746
sg6
F0.6077076411960133
sg7
F0.019359276729559748
ss(F2.4
I-1
tp90
(dp91
g5
I0
sg6
I0
sg7
I0
ss(F0.8
F1.6
tp92
(dp93
g5
F0.13665158371040723
sg6
F0.7208478639930253
sg7
F0.012445549211598177
sss.