(dp0
(I70
I100
tp1
(dp2
(I0
F0.8
tp3
(dp4
S'c'
p5
F0.14994984954864593
sS'b'
p6
F0.802054820332143
sS'other'
p7
F0.004024949859187127
ss(F1.6
F2.4
tp8
(dp9
g5
F0.19979919678714858
sg6
F0.7159560537147639
sg7
F0.014632708053330369
ss(F2.4
I-1
tp10
(dp11
g5
I0
sg6
I0
sg7
I0
ss(F0.8
F1.6
tp12
(dp13
g5
F0.07153075822603719
sg6
F0.7595076273606324
sg7
F0.0
sss(I600
I1000
tp14
(dp15
(I0
F0.8
tp16
(dp17
g5
F0.0
sg6
F1.0
sg7
F0.0
ss(F1.6
F2.4
tp18
(dp19
g5
I0
sg6
I0
sg7
F0.0
ss(F2.4
I-1
tp20
(dp21
g5
I0
sg6
I0
sg7
I0
ss(F0.8
F1.6
tp22
(dp23
g5
I0
sg6
I0
sg7
F0.0
sss(I200
I300
tp24
(dp25
(I0
F0.8
tp26
(dp27
g5
F0.0
sg6
F0.749963121404337
sg7
F0.026814734561213433
ss(F1.6
F2.4
tp28
(dp29
g5
F0.0
sg6
F0.5991983967935872
sg7
F0.0
ss(F2.4
I-1
tp30
(dp31
g5
I0
sg6
I0
sg7
I0
ss(F0.8
F1.6
tp32
(dp33
g5
F1.0
sg6
F0.7093436792757841
sg7
F0.020475020475020474
sss(I100
I140
tp34
(dp35
(I0
F0.8
tp36
(dp37
g5
F0.10010010010010009
sg6
F0.796872115935129
sg7
F0.007535221509139098
ss(F1.6
F2.4
tp38
(dp39
g5
F0.49832775919732436
sg6
F0.7281949771124585
sg7
F0.008629707112970715
ss(F2.4
I-1
tp40
(dp41
g5
I0
sg6
I0
sg7
I0
ss(F0.8
F1.6
tp42
(dp43
g5
F0.25
sg6
F0.7595313441832426
sg7
F0.0
sss(I1000
I-1
tp44
(dp45
(I0
F0.8
tp46
(dp47
g5
I0
sg6
I0
sg7
I0
ss(F1.6
F2.4
tp48
(dp49
g5
I0
sg6
I0
sg7
I0
ss(F2.4
I-1
tp50
(dp51
g5
I0
sg6
I0
sg7
I0
ss(F0.8
F1.6
tp52
(dp53
g5
I0
sg6
I0
sg7
F0.0
sss(I50
I70
tp54
(dp55
(I0
F0.8
tp56
(dp57
g5
F0.21142402362082746
sg6
F0.7808254658373488
sg7
F0.00916197827878189
ss(F1.6
F2.4
tp58
(dp59
g5
F0.11123470522803114
sg6
F0.7850519900486288
sg7
F0.02476300218896999
ss(F2.4
I-1
tp60
(dp61
g5
I0
sg6
I0
sg7
I0
ss(F0.8
F1.6
tp62
(dp63
g5
F0.2001000500250125
sg6
F0.7675935042875421
sg7
F0.0138869456446153
sss(I300
I600
tp64
(dp65
(I0
F0.8
tp66
(dp67
g5
F0.0
sg6
F0.7134670487106017
sg7
F0.0
ss(F1.6
F2.4
tp68
(dp69
g5
I0
sg6
I0
sg7
F0.0
ss(F2.4
I-1
tp70
(dp71
g5
I0
sg6
I0
sg7
I0
ss(F0.8
F1.6
tp72
(dp73
g5
F0.0
sg6
F0.5012531328320802
sg7
F0.0
sss(I30
I50
tp74
(dp75
(I0
F0.8
tp76
(dp77
g5
F0.1556792873051225
sg6
F0.7505482658936141
sg7
F0.006397784012347203
ss(F1.6
F2.4
tp78
(dp79
g5
F0.07091690544412609
sg6
F0.6326371920001388
sg7
F0.019291139861194094
ss(F2.4
I-1
tp80
(dp81
g5
I0
sg6
I0
sg7
I0
ss(F0.8
F1.6
tp82
(dp83
g5
F0.05412719891745603
sg6
F0.6967411234799261
sg7
F0.008867239074828679
sss(I140
I200
tp84
(dp85
(I0
F0.8
tp86
(dp87
g5
F0.08277591973244146
sg6
F0.7724308670548445
sg7
F0.0
ss(F1.6
F2.4
tp88
(dp89
g5
F0.6666666666666666
sg6
F0.6589306029579066
sg7
F0.015759262148162527
ss(F2.4
I-1
tp90
(dp91
g5
I0
sg6
I0
sg7
I0
ss(F0.8
F1.6
tp92
(dp93
g5
F0.14306151645207438
sg6
F0.7537409320670492
sg7
F0.012690355329949242
sss.