(dp0
(I70
I100
tp1
(dp2
(I0
F0.8
tp3
(dp4
S'c'
p5
F0.10451977401129943
sS'b'
p6
F0.7448639026922792
sS'other'
p7
F0.00832072617246596
ss(F1.6
F2.4
tp8
(dp9
g5
F0.10566037735849057
sg6
F0.6430868167202572
sg7
F0.01505927587311759
ss(F0.8
F1.6
tp10
(dp11
g5
F0.12727272727272726
sg6
F0.7166200335758254
sg7
F0.010584810796507013
sss(I600
I1000
tp12
(dp13
(I0
F0.8
tp14
(dp15
g5
I0
sg6
F0.0
sg7
F0.02040816326530612
ss(F1.6
F2.4
tp16
(dp17
g5
F0.0
sg6
F0.0
sg7
F0.0
ss(F0.8
F1.6
tp18
(dp19
g5
F0.0
sg6
F0.6666666666666666
sg7
F0.0
sss(I200
I300
tp20
(dp21
(I0
F0.8
tp22
(dp23
g5
F0.1271186440677966
sg6
F0.7111698612029081
sg7
F0.012658227848101266
ss(F1.6
F2.4
tp24
(dp25
g5
F0.1111111111111111
sg6
F0.543778801843318
sg7
F0.015810276679841896
ss(F0.8
F1.6
tp26
(dp27
g5
F0.07216494845360824
sg6
F0.6699134199134199
sg7
F0.012387387387387387
sss(I100
I140
tp28
(dp29
(I0
F0.8
tp30
(dp31
g5
F0.15267175572519084
sg6
F0.751412429378531
sg7
F0.008193523214982443
ss(F1.6
F2.4
tp32
(dp33
g5
F0.09467455621301775
sg6
F0.6194351364289133
sg7
F0.017133956386292833
ss(F0.8
F1.6
tp34
(dp35
g5
F0.10526315789473684
sg6
F0.7231599095180093
sg7
F0.0072992700729927005
sss(I1000
I-1
tp36
(dp37
(I0
F0.8
tp38
(dp39
g5
I0
sg6
I0
sg7
F0.0
ss(F1.6
F2.4
tp40
(dp41
g5
I0
sg6
I0
sg7
I0
ss(F0.8
F1.6
tp42
(dp43
g5
I0
sg6
I0
sg7
F0.0
sss(I50
I70
tp44
(dp45
(I0
F0.8
tp46
(dp47
g5
F0.10922787193973635
sg6
F0.7278146188808584
sg7
F0.006172839506172839
ss(F1.6
F2.4
tp48
(dp49
g5
F0.13496932515337423
sg6
F0.6341916028763628
sg7
F0.01659959758551308
ss(F0.8
F1.6
tp50
(dp51
g5
F0.07936507936507936
sg6
F0.7005885500267522
sg7
F0.010295519542421354
sss(I300
I600
tp52
(dp53
(I0
F0.8
tp54
(dp55
g5
F0.16666666666666666
sg6
F0.6782945736434108
sg7
F0.00641025641025641
ss(F1.6
F2.4
tp56
(dp57
g5
F0.0
sg6
F0.21875
sg7
F0.024305555555555556
ss(F0.8
F1.6
tp58
(dp59
g5
F0.045454545454545456
sg6
F0.6268656716417911
sg7
F0.017204301075268817
sss(I30
I50
tp60
(dp61
(I0
F0.8
tp62
(dp63
g5
F0.12108559498956159
sg6
F0.7032067162124965
sg7
F0.009127301841473178
ss(F1.6
F2.4
tp64
(dp65
g5
F0.09146341463414634
sg6
F0.5814151747655584
sg7
F0.01589319771137953
ss(F0.8
F1.6
tp66
(dp67
g5
F0.10935601458080195
sg6
F0.6634982760227378
sg7
F0.009032710690169254
sss(I140
I200
tp68
(dp69
(I0
F0.8
tp70
(dp71
g5
F0.10227272727272728
sg6
F0.7360529217199558
sg7
F0.008428657435279952
ss(F1.6
F2.4
tp72
(dp73
g5
F0.1206896551724138
sg6
F0.6347926267281107
sg7
F0.017678708685626442
ss(F0.8
F1.6
tp74
(dp75
g5
F0.10919540229885058
sg6
F0.691887959257912
sg7
F0.010143198090692125
sss.