(dp0
(I70
I100
tp1
(dp2
(I0
F0.8
tp3
(dp4
S'c'
p5
F0.1288331654002216
sS'b'
p6
F0.8063265869430971
sS'other'
p7
F0.007389615466872829
ss(F1.6
F2.4
tp8
(dp9
g5
F0.14917367249538036
sg6
F0.7318722901887104
sg7
F0.01593975652261133
ss(F2.4
I-1
tp10
(dp11
g5
I0
sg6
I0
sg7
I0
ss(F0.8
F1.6
tp12
(dp13
g5
F0.14535341317268077
sg6
F0.7711965758439467
sg7
F0.009172927450921223
sss(I600
I1000
tp14
(dp15
(I0
F0.8
tp16
(dp17
g5
F0.06885789322528295
sg6
F0.4443207126948776
sg7
F0.0037981320972069795
ss(F1.6
F2.4
tp18
(dp19
g5
F0.0
sg6
F0.0
sg7
F0.0
ss(F2.4
I-1
tp20
(dp21
g5
I0
sg6
I0
sg7
I0
ss(F0.8
F1.6
tp22
(dp23
g5
F0.0
sg6
F0.33277591973244147
sg7
F0.0
sss(I200
I300
tp24
(dp25
(I0
F0.8
tp26
(dp27
g5
F0.15828137703963194
sg6
F0.7688432625242878
sg7
F0.011123007696503042
ss(F1.6
F2.4
tp28
(dp29
g5
F0.13285809704926396
sg6
F0.5929723173674778
sg7
F0.02222003599374936
ss(F2.4
I-1
tp30
(dp31
g5
I0
sg6
I0
sg7
I0
ss(F0.8
F1.6
tp32
(dp33
g5
F0.1381779635662871
sg6
F0.7123302900949876
sg7
F0.013620849185359944
sss(I100
I140
tp34
(dp35
(I0
F0.8
tp36
(dp37
g5
F0.12634006155038632
sg6
F0.8090214744429761
sg7
F0.010103747530817378
ss(F1.6
F2.4
tp38
(dp39
g5
F0.14577102211912482
sg6
F0.7114809703674899
sg7
F0.02019904973800104
ss(F2.4
I-1
tp40
(dp41
g5
I0
sg6
I0
sg7
I0
ss(F0.8
F1.6
tp42
(dp43
g5
F0.15470838028858527
sg6
F0.7764631284150196
sg7
F0.011746266582906728
sss(I1000
I-1
tp44
(dp45
(I0
F0.8
tp46
(dp47
g5
F0.0
sg6
F1.0
sg7
F0.0
ss(F1.6
F2.4
tp48
(dp49
g5
I0
sg6
I0
sg7
F0.0
ss(F2.4
I-1
tp50
(dp51
g5
I0
sg6
I0
sg7
I0
ss(F0.8
F1.6
tp52
(dp53
g5
I0
sg6
F1.0
sg7
F0.0
sss(I50
I70
tp54
(dp55
(I0
F0.8
tp56
(dp57
g5
F0.13077113324188652
sg6
F0.7854523634490103
sg7
F0.006610855753642254
ss(F1.6
F2.4
tp58
(dp59
g5
F0.13373146688278992
sg6
F0.7257218015068628
sg7
F0.016842314610383116
ss(F2.4
I-1
tp60
(dp61
g5
I0
sg6
I0
sg7
I0
ss(F0.8
F1.6
tp62
(dp63
g5
F0.1331595062302809
sg6
F0.7560259526292429
sg7
F0.008386740007072582
sss(I300
I600
tp64
(dp65
(I0
F0.8
tp66
(dp67
g5
F0.1408673593185199
sg6
F0.6749383361782082
sg7
F0.011623281200548506
ss(F1.6
F2.4
tp68
(dp69
g5
F0.08766777277724128
sg6
F0.4394261949434162
sg7
F0.014805081484921528
ss(F2.4
I-1
tp70
(dp71
g5
I0
sg6
I0
sg7
I0
ss(F0.8
F1.6
tp72
(dp73
g5
F0.07804329477148403
sg6
F0.6021139156459381
sg7
F0.015308351555222024
sss(I30
I50
tp74
(dp75
(I0
F0.8
tp76
(dp77
g5
F0.1370139240793786
sg6
F0.738246511101962
sg7
F0.006347297725795879
ss(F1.6
F2.4
tp78
(dp79
g5
F0.1449049321485886
sg6
F0.6747533337896502
sg7
F0.015822014316850184
ss(F2.4
I-1
tp80
(dp81
g5
I0
sg6
I0
sg7
I0
ss(F0.8
F1.6
tp82
(dp83
g5
F0.1356173273185602
sg6
F0.708435757273884
sg7
F0.009306598618825624
sss(I140
I200
tp84
(dp85
(I0
F0.8
tp86
(dp87
g5
F0.1565829371983985
sg6
F0.8076445860620735
sg7
F0.011043714675190566
ss(F1.6
F2.4
tp88
(dp89
g5
F0.1540801987577379
sg6
F0.6884133148139441
sg7
F0.022750277599592705
ss(F2.4
I-1
tp90
(dp91
g5
I0
sg6
I0
sg7
I0
ss(F0.8
F1.6
tp92
(dp93
g5
F0.13679849723201906
sg6
F0.7544969200829507
sg7
F0.010795381248173384
sss.