(dp0
(I70
I100
tp1
(dp2
(I0
F0.8
tp3
(dp4
S'c'
p5
F0.13506884421378298
sS'b'
p6
F0.789091177979151
sS'other'
p7
F0.006151496760297119
ss(F1.6
F2.4
tp8
(dp9
g5
F0.12269745055032912
sg6
F0.7175369910205116
sg7
F0.017890793000706354
ss(F2.4
I-1
tp10
(dp11
g5
I0
sg6
I0
sg7
I0
ss(F0.8
F1.6
tp12
(dp13
g5
F0.13696122089795526
sg6
F0.7693998633404777
sg7
F0.010314352146085165
sss(I600
I1000
tp14
(dp15
(I0
F0.8
tp16
(dp17
g5
F0.11024498886414254
sg6
F0.4438264738598443
sg7
F0.0
ss(F1.6
F2.4
tp18
(dp19
g5
F0.0
sg6
I0
sg7
F0.0
ss(F2.4
I-1
tp20
(dp21
g5
I0
sg6
I0
sg7
I0
ss(F0.8
F1.6
tp22
(dp23
g5
F0.0
sg6
F1.0
sg7
F0.028595939376608516
sss(I200
I300
tp24
(dp25
(I0
F0.8
tp26
(dp27
g5
F0.09184137605783688
sg6
F0.7462770861547452
sg7
F0.004727969045319632
ss(F1.6
F2.4
tp28
(dp29
g5
F0.19349617243914113
sg6
F0.5817868585594659
sg7
F0.01656260799929875
ss(F2.4
I-1
tp30
(dp31
g5
I0
sg6
I0
sg7
I0
ss(F0.8
F1.6
tp32
(dp33
g5
F0.15583692531633925
sg6
F0.7010594023093367
sg7
F0.008025054629372431
sss(I100
I140
tp34
(dp35
(I0
F0.8
tp36
(dp37
g5
F0.13007455182005007
sg6
F0.7917205002911828
sg7
F0.007043093751429847
ss(F1.6
F2.4
tp38
(dp39
g5
F0.15479152267358673
sg6
F0.7015578880226018
sg7
F0.018573281208411098
ss(F2.4
I-1
tp40
(dp41
g5
I0
sg6
I0
sg7
I0
ss(F0.8
F1.6
tp42
(dp43
g5
F0.1590547559269409
sg6
F0.7717408481916916
sg7
F0.01118184176506795
sss(I1000
I-1
tp44
(dp45
(I0
F0.8
tp46
(dp47
g5
I0
sg6
F0.0
sg7
F0.0
ss(F1.6
F2.4
tp48
(dp49
g5
I0
sg6
I0
sg7
I0
ss(F2.4
I-1
tp50
(dp51
g5
I0
sg6
I0
sg7
I0
ss(F0.8
F1.6
tp52
(dp53
g5
I0
sg6
I0
sg7
F0.0
sss(I50
I70
tp54
(dp55
(I0
F0.8
tp56
(dp57
g5
F0.10906712574220145
sg6
F0.7741998917325744
sg7
F0.005657440509296786
ss(F1.6
F2.4
tp58
(dp59
g5
F0.11196180980101601
sg6
F0.7094673793938676
sg7
F0.015810568379180948
ss(F2.4
I-1
tp60
(dp61
g5
I0
sg6
I0
sg7
I0
ss(F0.8
F1.6
tp62
(dp63
g5
F0.11292833412434738
sg6
F0.7566887535993806
sg7
F0.009914862008964046
sss(I300
I600
tp64
(dp65
(I0
F0.8
tp66
(dp67
g5
F0.13340956737183154
sg6
F0.6436963946103444
sg7
F0.006910450295606106
ss(F1.6
F2.4
tp68
(dp69
g5
F0.15966386554621848
sg6
F0.5043496569082506
sg7
F0.022153693463774278
ss(F2.4
I-1
tp70
(dp71
g5
I0
sg6
I0
sg7
I0
ss(F0.8
F1.6
tp72
(dp73
g5
F0.10136834596002794
sg6
F0.561991395919738
sg7
F0.011426770416377541
sss(I30
I50
tp74
(dp75
(I0
F0.8
tp76
(dp77
g5
F0.09939117475613907
sg6
F0.7359072144788245
sg7
F0.00534205865829569
ss(F1.6
F2.4
tp78
(dp79
g5
F0.12844866446263248
sg6
F0.6748650365965857
sg7
F0.013414552388360434
ss(F2.4
I-1
tp80
(dp81
g5
I0
sg6
I0
sg7
I0
ss(F0.8
F1.6
tp82
(dp83
g5
F0.11306082740201957
sg6
F0.7185681148551578
sg7
F0.009621598738644205
sss(I140
I200
tp84
(dp85
(I0
F0.8
tp86
(dp87
g5
F0.12488499485960179
sg6
F0.7853191533870244
sg7
F0.006834132624887745
ss(F1.6
F2.4
tp88
(dp89
g5
F0.1167549728257592
sg6
F0.66563036965176
sg7
F0.017263837004815066
ss(F2.4
I-1
tp90
(dp91
g5
I0
sg6
I0
sg7
I0
ss(F0.8
F1.6
tp92
(dp93
g5
F0.12670893054024254
sg6
F0.74749897221069
sg7
F0.010428953048439963
sss.