(dp0
(I70
I100
tp1
(dp2
(I0
F0.8
tp3
(dp4
S'c'
p5
F0.10305719921104536
sS'b'
p6
F0.7470763372315503
sS'other'
p7
F0.006622247501421955
ss(F1.6
F2.4
tp8
(dp9
g5
F0.1043956043956044
sg6
F0.6330444203683641
sg7
F0.013901947615849564
ss(F0.8
F1.6
tp10
(dp11
g5
F0.10936517913262099
sg6
F0.7196484264247236
sg7
F0.009954171389148968
sss(I600
I1000
tp12
(dp13
(I0
F0.8
tp14
(dp15
g5
F0.16666666666666666
sg6
F0.45
sg7
F0.024390243902439025
ss(F1.6
F2.4
tp16
(dp17
g5
I0
sg6
I0
sg7
F0.05555555555555555
ss(F0.8
F1.6
tp18
(dp19
g5
F0.0
sg6
F0.42857142857142855
sg7
F0.06060606060606061
sss(I200
I300
tp20
(dp21
(I0
F0.8
tp22
(dp23
g5
F0.11899313501144165
sg6
F0.728466218379763
sg7
F0.008337088778729157
ss(F1.6
F2.4
tp24
(dp25
g5
F0.12556053811659193
sg6
F0.5613293051359517
sg7
F0.01759628154050465
ss(F0.8
F1.6
tp26
(dp27
g5
F0.09424083769633508
sg6
F0.6725268592158504
sg7
F0.0164740595033194
sss(I100
I140
tp28
(dp29
(I0
F0.8
tp30
(dp31
g5
F0.0967016491754123
sg6
F0.7540215870200767
sg7
F0.006912127018888585
ss(F1.6
F2.4
tp32
(dp33
g5
F0.09863013698630137
sg6
F0.6226961061835566
sg7
F0.01566409224409877
ss(F0.8
F1.6
tp34
(dp35
g5
F0.09973045822102426
sg6
F0.7210081809962734
sg7
F0.010977308101908742
sss(I1000
I-1
tp36
(dp37
(I0
F0.8
tp38
(dp39
g5
I0
sg6
F1.0
sg7
F0.0
ss(F1.6
F2.4
tp40
(dp41
g5
I0
sg6
I0
sg7
I0
ss(F0.8
F1.6
tp42
(dp43
g5
I0
sg6
I0
sg7
F0.0
sss(I50
I70
tp44
(dp45
(I0
F0.8
tp46
(dp47
g5
F0.09775888717156105
sg6
F0.7352441959705027
sg7
F0.007103508263264714
ss(F1.6
F2.4
tp48
(dp49
g5
F0.09698558322411534
sg6
F0.6287947760022604
sg7
F0.013729751086527065
ss(F0.8
F1.6
tp50
(dp51
g5
F0.11105882352941177
sg6
F0.7054233046021458
sg7
F0.010485492674518817
sss(I300
I600
tp52
(dp53
(I0
F0.8
tp54
(dp55
g5
F0.11242603550295859
sg6
F0.6687668766876688
sg7
F0.015195791934541203
ss(F1.6
F2.4
tp56
(dp57
g5
F0.07017543859649122
sg6
F0.511520737327189
sg7
F0.023230088495575223
ss(F0.8
F1.6
tp58
(dp59
g5
F0.11904761904761904
sg6
F0.6168307967770814
sg7
F0.019741320626276378
sss(I30
I50
tp60
(dp61
(I0
F0.8
tp62
(dp63
g5
F0.11481844946025516
sg6
F0.7029036734480141
sg7
F0.008139952671812471
ss(F1.6
F2.4
tp64
(dp65
g5
F0.11035337879727217
sg6
F0.5929394138027905
sg7
F0.016580752526687503
ss(F0.8
F1.6
tp66
(dp67
g5
F0.1131404174573055
sg6
F0.6716818399616674
sg7
F0.011740099538945377
sss(I140
I200
tp68
(dp69
(I0
F0.8
tp70
(dp71
g5
F0.13425925925925927
sg6
F0.7479903430345157
sg7
F0.007587078974594781
ss(F1.6
F2.4
tp72
(dp73
g5
F0.09513742071881606
sg6
F0.6045454545454545
sg7
F0.015118056735179209
ss(F0.8
F1.6
tp74
(dp75
g5
F0.12041116005873716
sg6
F0.7140285400658617
sg7
F0.011585524602967977
sss.