(dp0
(I70
I100
tp1
(dp2
(I0
F0.8
tp3
(dp4
S'c'
p5
F0.09257484407541304
sS'b'
p6
F0.7560567524613954
sS'other'
p7
F0.007272435317505799
ss(F1.6
F2.4
tp8
(dp9
g5
F0.10669569951007077
sg6
F0.6428893396439035
sg7
F0.013815226689478186
ss(F2.4
I-1
tp10
(dp11
g5
I0
sg6
I0
sg7
I0
ss(F0.8
F1.6
tp12
(dp13
g5
F0.12333791838606144
sg6
F0.7287916507855784
sg7
F0.008553464677951797
sss(I600
I1000
tp14
(dp15
(I0
F0.8
tp16
(dp17
g5
F0.12195121951219512
sg6
F0.5185185185185185
sg7
F0.038910505836575876
ss(F1.6
F2.4
tp18
(dp19
g5
F0.5
sg6
F0.6666666666666666
sg7
F0.10294117647058823
ss(F2.4
I-1
tp20
(dp21
g5
I0
sg6
I0
sg7
I0
ss(F0.8
F1.6
tp22
(dp23
g5
F0.12
sg6
F0.4
sg7
F0.05319148936170213
sss(I200
I300
tp24
(dp25
(I0
F0.8
tp26
(dp27
g5
F0.1430745814307458
sg6
F0.7352817198257693
sg7
F0.011780610274237158
ss(F1.6
F2.4
tp28
(dp29
g5
F0.06963788300835655
sg6
F0.5353685778108712
sg7
F0.018274346518621327
ss(F2.4
I-1
tp30
(dp31
g5
I0
sg6
I0
sg7
I0
ss(F0.8
F1.6
tp32
(dp33
g5
F0.158203125
sg6
F0.6814454126089186
sg7
F0.01765873015873016
sss(I100
I140
tp34
(dp35
(I0
F0.8
tp36
(dp37
g5
F0.27871071974288797
sg6
F0.7655349046466285
sg7
F0.005849220103986135
ss(F1.6
F2.4
tp38
(dp39
g5
F0.1140278917145201
sg6
F0.6368448010927096
sg7
F0.01655166325034366
ss(F2.4
I-1
tp40
(dp41
g5
I0
sg6
I0
sg7
I0
ss(F0.8
F1.6
tp42
(dp43
g5
F0.11170212765957446
sg6
F0.730207355714355
sg7
F0.009771404335788417
sss(I1000
I-1
tp44
(dp45
(I0
F0.8
tp46
(dp47
g5
F0.0
sg6
F0.0
sg7
F0.0
ss(F1.6
F2.4
tp48
(dp49
g5
I0
sg6
I0
sg7
F0.0
ss(F2.4
I-1
tp50
(dp51
g5
I0
sg6
I0
sg7
I0
ss(F0.8
F1.6
tp52
(dp53
g5
I0
sg6
F0.0
sg7
F0.0
sss(I50
I70
tp54
(dp55
(I0
F0.8
tp56
(dp57
g5
F0.09912009532190237
sg6
F0.7435923397124795
sg7
F0.007026222795160105
ss(F1.6
F2.4
tp58
(dp59
g5
F0.09255070456457216
sg6
F0.6346521798956751
sg7
F0.015572077692280037
ss(F2.4
I-1
tp60
(dp61
g5
I0
sg6
I0
sg7
I0
ss(F0.8
F1.6
tp62
(dp63
g5
F0.1193444959030994
sg6
F0.7092697461960721
sg7
F0.009137763931347737
sss(I300
I600
tp64
(dp65
(I0
F0.8
tp66
(dp67
g5
F0.1388888888888889
sg6
F0.6818181818181818
sg7
F0.016286644951140065
ss(F1.6
F2.4
tp68
(dp69
g5
F0.16153846153846155
sg6
F0.475
sg7
F0.028602860286028604
ss(F2.4
I-1
tp70
(dp71
g5
I0
sg6
I0
sg7
I0
ss(F0.8
F1.6
tp72
(dp73
g5
F0.09057971014492754
sg6
F0.612565445026178
sg7
F0.023547880690737835
sss(I30
I50
tp74
(dp75
(I0
F0.8
tp76
(dp77
g5
F0.1177579415848301
sg6
F0.6966639521204292
sg7
F0.008857842232611471
ss(F1.6
F2.4
tp78
(dp79
g5
F0.10432980193459235
sg6
F0.5819024870980812
sg7
F0.017126704361712486
ss(F2.4
I-1
tp80
(dp81
g5
I0
sg6
I0
sg7
I0
ss(F0.8
F1.6
tp82
(dp83
g5
F0.1282300369147076
sg6
F0.666918250001538
sg7
F0.01178742425850452
sss(I140
I200
tp84
(dp85
(I0
F0.8
tp86
(dp87
g5
F0.11923847695390781
sg6
F0.7617661943319838
sg7
F0.006885653008240207
ss(F1.6
F2.4
tp88
(dp89
g5
F0.11011904761904762
sg6
F0.6113213756787889
sg7
F0.020577133812248873
ss(F2.4
I-1
tp90
(dp91
g5
I0
sg6
I0
sg7
I0
ss(F0.8
F1.6
tp92
(dp93
g5
F0.13611416026344675
sg6
F0.7204108361480664
sg7
F0.011413330399708143
sss.