(dp0
(I70
I100
tp1
(dp2
(I0
F0.8
tp3
(dp4
S'c'
p5
F0.14654683224742132
sS'b'
p6
F0.7871389434616186
sS'other'
p7
F0.0058336630699236565
ss(F1.6
F2.4
tp8
(dp9
g5
F0.16413268166503645
sg6
F0.6978518883800314
sg7
F0.019196777518279088
ss(F2.4
I-1
tp10
(dp11
g5
I0
sg6
I0
sg7
I0
ss(F0.8
F1.6
tp12
(dp13
g5
F0.12626242464581816
sg6
F0.7602036480851452
sg7
F0.010600959046923479
sss(I600
I1000
tp14
(dp15
(I0
F0.8
tp16
(dp17
g5
F0.0
sg6
F0.3333333333333333
sg7
F0.013336674068820496
ss(F1.6
F2.4
tp18
(dp19
g5
F0.1652754590984975
sg6
I0
sg7
F0.032372726625272734
ss(F2.4
I-1
tp20
(dp21
g5
I0
sg6
I0
sg7
I0
ss(F0.8
F1.6
tp22
(dp23
g5
F0.0
sg6
F0.2008032128514056
sg7
F0.01629990521605116
sss(I200
I300
tp24
(dp25
(I0
F0.8
tp26
(dp27
g5
F0.1611448642490982
sg6
F0.7422294333013857
sg7
F0.0057122630697254454
ss(F1.6
F2.4
tp28
(dp29
g5
F0.11389021479713596
sg6
F0.5676632108192577
sg7
F0.021440699760672623
ss(F2.4
I-1
tp30
(dp31
g5
I0
sg6
I0
sg7
I0
ss(F0.8
F1.6
tp32
(dp33
g5
F0.09719037457882151
sg6
F0.7020624024880973
sg7
F0.012706543051950106
sss(I100
I140
tp34
(dp35
(I0
F0.8
tp36
(dp37
g5
F0.14259838316478562
sg6
F0.7934573162835106
sg7
F0.005858270232304031
ss(F1.6
F2.4
tp38
(dp39
g5
F0.15477754221780388
sg6
F0.691255685637004
sg7
F0.01548616925539991
ss(F2.4
I-1
tp40
(dp41
g5
I0
sg6
I0
sg7
I0
ss(F0.8
F1.6
tp42
(dp43
g5
F0.14237174489201715
sg6
F0.7669970976199488
sg7
F0.015879571842152978
sss(I1000
I-1
tp44
(dp45
(I0
F0.8
tp46
(dp47
g5
I0
sg6
F0.0
sg7
F0.0
ss(F1.6
F2.4
tp48
(dp49
g5
F0.0
sg6
I0
sg7
F0.0
ss(F2.4
I-1
tp50
(dp51
g5
I0
sg6
I0
sg7
I0
ss(F0.8
F1.6
tp52
(dp53
g5
I0
sg6
I0
sg7
F0.0
sss(I50
I70
tp54
(dp55
(I0
F0.8
tp56
(dp57
g5
F0.10084997246445225
sg6
F0.7717935540634379
sg7
F0.005550727796733467
ss(F1.6
F2.4
tp58
(dp59
g5
F0.1337289598618906
sg6
F0.705998831172199
sg7
F0.016854902825270638
ss(F2.4
I-1
tp60
(dp61
g5
I0
sg6
I0
sg7
I0
ss(F0.8
F1.6
tp62
(dp63
g5
F0.11184690887453816
sg6
F0.7527256676845385
sg7
F0.011825693429013706
sss(I300
I600
tp64
(dp65
(I0
F0.8
tp66
(dp67
g5
F0.09907499426649338
sg6
F0.6810491486007711
sg7
F0.001701272245410565
ss(F1.6
F2.4
tp68
(dp69
g5
F0.027114820418544364
sg6
F0.5997709705124535
sg7
F0.004953925193087523
ss(F2.4
I-1
tp70
(dp71
g5
I0
sg6
I0
sg7
I0
ss(F0.8
F1.6
tp72
(dp73
g5
F0.07614354201456855
sg6
F0.49989531124931574
sg7
F0.00761772787640312
sss(I30
I50
tp74
(dp75
(I0
F0.8
tp76
(dp77
g5
F0.11390648918716587
sg6
F0.7312057900231117
sg7
F0.005882152870732198
ss(F1.6
F2.4
tp78
(dp79
g5
F0.1279674863452857
sg6
F0.6704904159536472
sg7
F0.015584262284878973
ss(F2.4
I-1
tp80
(dp81
g5
I0
sg6
I0
sg7
I0
ss(F0.8
F1.6
tp82
(dp83
g5
F0.1228430804410529
sg6
F0.7109339351452738
sg7
F0.011651646428325162
sss(I140
I200
tp84
(dp85
(I0
F0.8
tp86
(dp87
g5
F0.11759367747625474
sg6
F0.7735687711596753
sg7
F0.006449108556872636
ss(F1.6
F2.4
tp88
(dp89
g5
F0.12259454146668247
sg6
F0.6680209156064052
sg7
F0.013850116697938897
ss(F2.4
I-1
tp90
(dp91
g5
I0
sg6
I0
sg7
I0
ss(F0.8
F1.6
tp92
(dp93
g5
F0.14619647249376042
sg6
F0.741879887293049
sg7
F0.013477939601054305
sss.