(dp0
(I70
I100
tp1
(dp2
(I0
F0.8
tp3
(dp4
S'c'
p5
F0.12813281729362191
sS'b'
p6
F0.7987620994586778
sS'other'
p7
F0.006894500673316477
ss(F1.6
F2.4
tp8
(dp9
g5
F0.15603889936956836
sg6
F0.7144741698911088
sg7
F0.01540110543134128
ss(F2.4
I-1
tp10
(dp11
g5
I0
sg6
I0
sg7
I0
ss(F0.8
F1.6
tp12
(dp13
g5
F0.13322310396091278
sg6
F0.7635838306952728
sg7
F0.009182083664629201
sss(I600
I1000
tp14
(dp15
(I0
F0.8
tp16
(dp17
g5
F0.08078048039989048
sg6
F0.3701226309921962
sg7
F0.002803576343932553
ss(F1.6
F2.4
tp18
(dp19
g5
F0.0
sg6
F0.19999999999999998
sg7
F0.010900346849036728
ss(F2.4
I-1
tp20
(dp21
g5
I0
sg6
I0
sg7
I0
ss(F0.8
F1.6
tp22
(dp23
g5
F0.07132540049122771
sg6
F0.3124215809284818
sg7
F0.0
sss(I200
I300
tp24
(dp25
(I0
F0.8
tp26
(dp27
g5
F0.15396638319198344
sg6
F0.7537982348105676
sg7
F0.007488483996925402
ss(F1.6
F2.4
tp28
(dp29
g5
F0.14627973303615974
sg6
F0.5937218810310816
sg7
F0.01924085393594334
ss(F2.4
I-1
tp30
(dp31
g5
I0
sg6
I0
sg7
I0
ss(F0.8
F1.6
tp32
(dp33
g5
F0.12065530689608503
sg6
F0.7073344151151009
sg7
F0.011693609780732724
sss(I100
I140
tp34
(dp35
(I0
F0.8
tp36
(dp37
g5
F0.14390978599787513
sg6
F0.8016340990670835
sg7
F0.00909329820184136
ss(F1.6
F2.4
tp38
(dp39
g5
F0.12790226718869688
sg6
F0.701782562693429
sg7
F0.016698424367710674
ss(F2.4
I-1
tp40
(dp41
g5
I0
sg6
I0
sg7
I0
ss(F0.8
F1.6
tp42
(dp43
g5
F0.14613657406397437
sg6
F0.7667865290677772
sg7
F0.010201240128970007
sss(I1000
I-1
tp44
(dp45
(I0
F0.8
tp46
(dp47
g5
F0.0
sg6
F1.0
sg7
F0.0
ss(F1.6
F2.4
tp48
(dp49
g5
I0
sg6
I0
sg7
I0
ss(F2.4
I-1
tp50
(dp51
g5
I0
sg6
I0
sg7
I0
ss(F0.8
F1.6
tp52
(dp53
g5
I0
sg6
F1.0
sg7
F0.0
sss(I50
I70
tp54
(dp55
(I0
F0.8
tp56
(dp57
g5
F0.132081922892314
sg6
F0.7805365260110031
sg7
F0.005956242446443423
ss(F1.6
F2.4
tp58
(dp59
g5
F0.13846444460116822
sg6
F0.7139393426439489
sg7
F0.016674497337710825
ss(F2.4
I-1
tp60
(dp61
g5
I0
sg6
I0
sg7
I0
ss(F0.8
F1.6
tp62
(dp63
g5
F0.14316433332550654
sg6
F0.7496016876828716
sg7
F0.008940812665931138
sss(I300
I600
tp64
(dp65
(I0
F0.8
tp66
(dp67
g5
F0.13055155007520566
sg6
F0.6684535513915635
sg7
F0.009212981283791341
ss(F1.6
F2.4
tp68
(dp69
g5
F0.10213474036062262
sg6
F0.3923300207099709
sg7
F0.012461435737588431
ss(F2.4
I-1
tp70
(dp71
g5
I0
sg6
I0
sg7
I0
ss(F0.8
F1.6
tp72
(dp73
g5
F0.10355685965791174
sg6
F0.6192036058592101
sg7
F0.013977120599255646
sss(I30
I50
tp74
(dp75
(I0
F0.8
tp76
(dp77
g5
F0.13749521864465195
sg6
F0.7490499367529146
sg7
F0.006379404231121181
ss(F1.6
F2.4
tp78
(dp79
g5
F0.14149534526437327
sg6
F0.6844298394809636
sg7
F0.017562292318687424
ss(F2.4
I-1
tp80
(dp81
g5
I0
sg6
I0
sg7
I0
ss(F0.8
F1.6
tp82
(dp83
g5
F0.1313693685202827
sg6
F0.7159663358863251
sg7
F0.009527227239276445
sss(I140
I200
tp84
(dp85
(I0
F0.8
tp86
(dp87
g5
F0.1427148381061032
sg6
F0.7944190412207908
sg7
F0.010888703735036476
ss(F1.6
F2.4
tp88
(dp89
g5
F0.1442297119176907
sg6
F0.6694386324161203
sg7
F0.01991450979475412
ss(F2.4
I-1
tp90
(dp91
g5
I0
sg6
I0
sg7
I0
ss(F0.8
F1.6
tp92
(dp93
g5
F0.15347808482577407
sg6
F0.7425002004344051
sg7
F0.011852149483697777
sss.