(dp0
(I70
I100
tp1
(dp2
(I0
F0.8
tp3
(dp4
S'c'
p5
F0.11739066469639525
sS'b'
p6
F0.7593101400178023
sS'other'
p7
F0.007234567022702024
ss(F1.6
F2.4
tp8
(dp9
g5
F0.1078186605348406
sg6
F0.636708538283347
sg7
F0.01617072120654749
ss(F2.4
I-1
tp10
(dp11
g5
I0
sg6
I0
sg7
I0
ss(F0.8
F1.6
tp12
(dp13
g5
F0.11894809593557325
sg6
F0.73399648186166
sg7
F0.009144471648266494
sss(I600
I1000
tp14
(dp15
(I0
F0.8
tp16
(dp17
g5
F0.1558181007579135
sg6
F0.6006029391612995
sg7
F0.03214035133002733
ss(F1.6
F2.4
tp18
(dp19
g5
F0.3333333333333333
sg6
F1.0
sg7
F0.010911050930603527
ss(F2.4
I-1
tp20
(dp21
g5
I0
sg6
I0
sg7
I0
ss(F0.8
F1.6
tp22
(dp23
g5
F0.11596354106268988
sg6
F0.537037037037037
sg7
F0.020593585009758372
sss(I200
I300
tp24
(dp25
(I0
F0.8
tp26
(dp27
g5
F0.11861828161206675
sg6
F0.7515837114108151
sg7
F0.011256627280927783
ss(F1.6
F2.4
tp28
(dp29
g5
F0.14339042887237943
sg6
F0.5473438855141566
sg7
F0.019463316397931377
ss(F2.4
I-1
tp30
(dp31
g5
I0
sg6
I0
sg7
I0
ss(F0.8
F1.6
tp32
(dp33
g5
F0.16946017162039084
sg6
F0.6971581508034557
sg7
F0.01579362918431658
sss(I100
I140
tp34
(dp35
(I0
F0.8
tp36
(dp37
g5
F0.12119133359414926
sg6
F0.7640300850467907
sg7
F0.008186069897800607
ss(F1.6
F2.4
tp38
(dp39
g5
F0.11468352916520015
sg6
F0.6326215629995697
sg7
F0.017710336864228057
ss(F2.4
I-1
tp40
(dp41
g5
I0
sg6
I0
sg7
I0
ss(F0.8
F1.6
tp42
(dp43
g5
F0.12325240838587083
sg6
F0.7352332089432266
sg7
F0.010134490555646681
sss(I1000
I-1
tp44
(dp45
(I0
F0.8
tp46
(dp47
g5
F0.0
sg6
I0
sg7
F0.04094157432635757
ss(F1.6
F2.4
tp48
(dp49
g5
I0
sg6
I0
sg7
F0.0
ss(F2.4
I-1
tp50
(dp51
g5
I0
sg6
I0
sg7
I0
ss(F0.8
F1.6
tp52
(dp53
g5
I0
sg6
I0
sg7
F0.0
sss(I50
I70
tp54
(dp55
(I0
F0.8
tp56
(dp57
g5
F0.10564837480133137
sg6
F0.7479590869771207
sg7
F0.008486553571691731
ss(F1.6
F2.4
tp58
(dp59
g5
F0.12569727224408486
sg6
F0.640764634433388
sg7
F0.016311802503995693
ss(F2.4
I-1
tp60
(dp61
g5
I0
sg6
I0
sg7
I0
ss(F0.8
F1.6
tp62
(dp63
g5
F0.10818419358637099
sg6
F0.7205481298559958
sg7
F0.010664145798059303
sss(I300
I600
tp64
(dp65
(I0
F0.8
tp66
(dp67
g5
F0.14774390536909368
sg6
F0.6730508232541241
sg7
F0.017921567163116367
ss(F1.6
F2.4
tp68
(dp69
g5
F0.10503435703267423
sg6
F0.5176223098670977
sg7
F0.03168438416104729
ss(F2.4
I-1
tp70
(dp71
g5
I0
sg6
I0
sg7
I0
ss(F0.8
F1.6
tp72
(dp73
g5
F0.09872547992528685
sg6
F0.6188373078737545
sg7
F0.026675297090773174
sss(I30
I50
tp74
(dp75
(I0
F0.8
tp76
(dp77
g5
F0.12109003269657682
sg6
F0.7189159059298805
sg7
F0.009024853023337609
ss(F1.6
F2.4
tp78
(dp79
g5
F0.12600907506018577
sg6
F0.6093930328982289
sg7
F0.017537107614726082
ss(F2.4
I-1
tp80
(dp81
g5
I0
sg6
I0
sg7
I0
ss(F0.8
F1.6
tp82
(dp83
g5
F0.12003007586470858
sg6
F0.6880822358840109
sg7
F0.012296312978220605
sss(I140
I200
tp84
(dp85
(I0
F0.8
tp86
(dp87
g5
F0.1290453289946218
sg6
F0.7624381918521715
sg7
F0.007873406054552973
ss(F1.6
F2.4
tp88
(dp89
g5
F0.11721627327979586
sg6
F0.604202185642955
sg7
F0.020685653400132405
ss(F2.4
I-1
tp90
(dp91
g5
I0
sg6
I0
sg7
I0
ss(F0.8
F1.6
tp92
(dp93
g5
F0.1269805051080246
sg6
F0.7325214242037466
sg7
F0.013319246543485683
sss.