(i__main__
eft
p0
(dp1
S'ctW'
p2
(lp3
cnumpy.core.multiarray
scalar
p4
(cnumpy
dtype
p5
(S'f8'
p6
I0
I1
tp7
Rp8
(I3
S'<'
p9
NNNI-1
I-1
I0
tp10
bS'\x00\x00\x00\x00\x00\x00\x04\xc0'
p11
tp12
Rp13
ag4
(g8
S'\x00\x00\x00\x00\x00\x00\x00\xc0'
p14
tp15
Rp16
ag4
(g8
S'\x00\x00\x00\x00\x00\x00\xf8\xbf'
p17
tp18
Rp19
ag4
(g8
S'\x00\x00\x00\x00\x00\x00\xf0\xbf'
p20
tp21
Rp22
ag4
(g8
S'\x00\x00\x00\x00\x00\x00\xe0\xbf'
p23
tp24
Rp25
ag4
(g8
S'\x00\x00\x00\x00\x00\x00\x00\x00'
p26
tp27
Rp28
ag4
(g8
S'\x00\x00\x00\x00\x00\x00\xe0?'
p29
tp30
Rp31
ag4
(g8
S'\x00\x00\x00\x00\x00\x00\xf0?'
p32
tp33
Rp34
ag4
(g8
S'\x00\x00\x00\x00\x00\x00\xf8?'
p35
tp36
Rp37
ag4
(g8
S'\x00\x00\x00\x00\x00\x00\x00@'
p38
tp39
Rp40
ag4
(g8
S'\x00\x00\x00\x00\x00\x00\x04@'
p41
tp42
Rp43
asS'ctW_1d_weight'
p44
(dp45
S'photon_pt'
p46
(lp47
(lp48
F38467.55897464292
aF44570.57641805308
aF52504.56646999913
aF62269.52913048573
aF73865.4643995106
aF87292.37227707308
aF102550.2527631726
aF119639.1058578153
aF138558.93156099285
aF159309.72987270806
aF181891.50079296457
aa(lp49
F17419.746683702626
aF19422.47957585283
aF22282.360308781717
aF25999.388882490173
aF30573.565296976347
aF36004.88955224222
aF42293.36164828562
aF49438.98158510972
aF57441.74936271095
aF66301.66498109176
aF76018.72844025129
aa(lp50
F11568.420839882621
aF12185.717123552064
aF13426.010991793351
aF15289.302444606146
aF17775.591481991032
aF20884.87810394752
aF24617.16231047546
aF28972.44410157543
aF33950.723477247324
aF39552.00043749059
aF45776.27498230543
aa(lp51
F8922.596084415225
aF8273.165058880499
aF8208.906997960426
aF8729.821901655
aF9835.909769964132
aF11527.170602887936
aF13803.604400426311
aF16665.211162579482
aF20111.990889346853
aF24143.94358072946
aF28761.06923672623
aa(lp52
F5133.531000123068
aF4144.36999397954
aF3538.446156824415
aF3315.759488657686
aF3476.3099894793186
aF4020.0976592893894
aF4947.122498087801
aF6257.384505874633
aF7950.883682649798
aF10027.620028413376
aF12487.593543165412
aa(lp53
F4089.757173361044
aF3014.2099258946046
aF2264.7729282403257
aF1841.4461803982335
aF1744.2296823683087
aF1973.123434150546
aF2528.1274357449593
aF3409.2416871515143
aF4616.46618837026
aF6149.800939401186
aF8009.24594024426
aa(lp54
F3483.0809162607834
aF2416.4993530406437
aF1630.2435313729138
aF1124.3134512575916
aF898.7091126946906
aF953.4305156841984
aF1288.477660226119
aF1903.8505463204579
aF2799.549173967211
aF3975.5735431663675
aF5431.923653917955
aa(lp55
F3688.2459311824264
aF2477.4288077336505
aF1571.5724781104166
aF970.6769423127126
aF674.7422003405502
aF683.7682521939223
aF997.7550978728344
aF1616.7027373772762
aF2540.611170707269
aF3769.4803978627924
aF5303.310418843856
aa(lp56
F2955.2357242140615
aF1964.4762041929432
aF1208.279520620958
aF686.6456734981044
aF399.57466282438435
aF347.0664885997947
aF529.1211508243372
aF945.7386494980115
aF1596.9189846208155
aF2482.6621561927523
aF3602.9681642138285
aasS'inclusive'
p57
(lp58
(lp59
F95728.17332778762
aF98468.92246117485
aF106635.15938370398
aF120226.88409536381
aF139244.09659614562
aF163686.79688606804
aF193554.98496511913
aF228848.66083329244
aF269567.82449062396
aF315712.47593705845
aF367282.61517263314
aassS'ctZ_1d_weight'
p60
(dp61
g46
(lp62
(lp63
F90094.21891950534
aF89132.49544316475
aF88371.44904075252
aF87811.07971226687
aF87451.38745770579
aF87292.37227707308
aF87334.03417036406
aF87576.37313758154
aF88019.38917872561
aF88663.08229379762
aF89507.4524827953
aa(lp64
F38496.31715233889
aF37656.32247491602
aF36987.18237619433
aF36488.89685617454
aF36161.4659148573
aF36004.88955224222
aF36019.16776832823
aF36204.30056311567
aF36560.28793660689
aF37087.12988879776
aF37784.82641969176
aa(lp65
F23742.28465637597
aF22788.1191022278
aF22025.295669911375
aF21453.814359425436
aF21073.6751707712
aF20884.87810394752
aF20887.423158954924
aF21081.310335793365
aF21466.53963446305
aF22043.111054963552
aF22811.02459729497
aa(lp66
F15639.18797687637
aF14256.786578375826
aF13154.384141726754
aF12331.980666928928
aF11789.576153982844
aF11527.170602887936
aF11544.764013644493
aF11842.35638625248
aF12419.947720711882
aF13277.538017022693
aF14415.1272751851
aa(lp67
F7281.226857769108
aF6169.855637784539
aF5288.057107944262
aF4635.83126824833
aF4213.1781186966955
aF4020.0976592893894
aF4056.589890026383
aF4322.654810907708
aF4818.2924219332845
aF5543.502723103278
aF6498.285714417487
aa(lp68
F4960.274500889816
aF3935.7367110075975
aF3124.7527093925714
aF2527.3224960447274
aF2143.4460709640543
aF1973.123434150546
aF2016.3545856042053
aF2273.1395253250503
aF2743.478253313069
aF3427.370769568256
aF4324.817074090632
aa(lp69
F3596.618100531982
aF2673.016416640125
aF1946.8968162094168
aF1418.2592992398572
aF1087.1038657314498
aF953.4305156841984
aF1017.2392490980991
aF1278.5300659731558
aF1737.3029663093557
aF2393.557950106715
aF3247.295017365221
aa(lp70
F3635.9136812686397
aF2606.993031733533
aF1797.3181640585046
aF1206.8890782435703
aF835.705774288705
aF683.7682521939223
aF751.0765119592198
aF1037.630553584593
aF1543.4303770700512
aF2268.4759824155904
aF3212.7673696212055
aa(lp71
F2556.574562154636
aF1765.9062947579278
aF1149.6213537040949
aF707.7197389931265
aF440.2014506250267
aF347.0664885997947
aF428.31485291743076
aF683.9465435779372
aF1113.9615605813092
aF1718.35990392755
aF2497.141573616662
aasg57
(lp72
(lp73
F190002.61640770204
aF180985.23169061376
aF173844.95737989366
aF168581.79347556364
aF165195.73997762805
aF163686.79688606804
aF164054.96420089647
aF166300.24192211113
aF170422.63004971473
aF176422.1285836983
aF184298.73752407098
aassS'ctZI'
p74
g3
sS'ctZI_1d_weight'
p75
(dp76
g46
(lp77
(lp78
F89382.20043321408
aF88632.48523746154
aF88048.64482396998
aF87630.67919274223
aF87378.58834377499
aF87292.37227707308
aF87372.03099263064
aF87617.56449045267
aF88028.97277053307
aF88606.25583287582
aF89349.41367748618
aa(lp79
F37925.67975957973
aF37230.322845228664
aF36690.565367318806
aF36306.40732585137
aF36077.84872082588
aF36004.88955224222
aF36087.52982010004
aF36325.7695243998
aF36719.60866514096
aF37269.04724232467
aF37974.08525594993
aa(lp80
F23170.83355970374
aF22348.098916383122
aF21708.136049147142
aF21250.944957995813
aF20976.525642929508
aF20884.87810394752
aF20976.0023410503
aF21249.89835423783
aF21706.566143509877
aF22346.005708866644
aF23168.217050308427
aa(lp81
F14902.486398997964
aF13680.076980510728
aF12731.34069165603
aF12056.277532434126
aF11654.887502844722
aF11527.170602887936
aF11673.126832563787
aF12092.756191872162
aF12786.058680813154
aF13753.034299386758
aF14993.68304759302
aa(lp82
F6902.955550943132
aF5871.970072040595
aF5068.1915434240145
aF4491.619965093282
aF4142.255337048354
aF4020.0976592893894
aF4125.146931816236
aF4457.403154628981
aF5016.866327727588
aF5803.53645111207
aF6817.413524782471
aa(lp83
F4675.759484591487
aF3711.7491121454736
aF2959.4803208783655
aF2418.95311079018
aF2090.1674818809147
aF1973.123434150546
aF2067.820967599091
aF2374.260082226561
aF2892.440778032935
aF3622.3630550182256
aF4564.026913182434
aa(lp84
F3378.40621140281
aF2499.9944969910985
aF1818.291070213384
aF1333.2959310696665
aF1045.0090795599338
aF953.4305156841984
aF1058.5602394424611
aF1360.3982508347078
aF1858.9445498609527
aF2554.199136521185
aF3446.1620108154225
aa(lp85
F3419.1543927919924
aF2434.467256162567
aF1668.585073788041
aF1121.507845668431
aF793.2355718037243
aF683.7682521939223
aF793.1058868390272
aF1121.2484757390334
aF1668.196018893948
aF2433.948516303762
aF3418.5059679684923
aa(lp86
F2499.901660020202
aF1721.060555673021
aF1116.3564863573927
aF685.7894520733099
aF429.35945282077836
aF347.0664885997947
aF438.9105594103601
aF704.8916652524739
aF1145.0098061261333
aF1759.2649820313472
aF2547.6571929681068
aasg57
(lp87
(lp88
F186257.37745124148
aF178130.22547259642
aF171809.59142675396
aF167295.47531371703
aF164587.87713349643
aF163686.79688606804
aF164592.23457145438
aF167304.19018964158
aF171822.66374063422
aF178147.65522445066
aF186279.16464105016
aassS'ctWI'
p89
g3
sS'ctZ'
p90
g3
sS'ctWI_1d_weight'
p91
(dp92
g46
(lp93
(lp94
F94333.61781996637
aF91796.58678502245
aF89823.94671326151
aF88415.69760468067
aF87571.83945928617
aF87292.37227707308
aF87577.2960580435
aF88426.61080219298
aF89840.31650952988
aF91818.41318004651
aF94360.90081374886
aa(lp95
F40323.48460891447
aF38771.865384465724
aF37564.19626657414
aF36700.47725524003
aF36180.70835046264
aF36004.88955224222
aF36173.02086057828
aF36685.1022754723
aF37541.13379692256
aF38741.115424930584
aF40285.04715949421
aa(lp96
F24906.911285510734
aF23459.92040606104
aF22334.22164817959
aF21529.815011867413
aF21046.700497122984
aF20884.87810394752
aF21044.347832340318
aF21525.109682301943
aF22327.163653832373
aF23450.50974693056
aF24895.14796159811
aa(lp97
F16592.029777806492
aF14778.792059486223
aF13365.687282834208
aF12352.715447850562
aF11739.876554535
aF11527.170602887936
aF11714.597592909076
aF12302.157524598426
aF13289.850397956168
aF14677.676212982047
aF16465.634969676415
aa(lp98
F7864.526709767913
aF6470.694006123653
aF5389.334749253597
aF4620.448939157873
aF4164.0365758364605
aF4020.0976592893894
aF4188.632189516615
aF4669.640166518098
aF5463.121590293927
aF6569.076460844033
aF7987.504778168479
aa(lp99
F5454.429507256416
aF4189.413690583072
aF3208.775174935786
aF2512.513960314616
aF2100.6300467195215
aF1973.123434150546
aF2129.9941226076517
aF2571.242112090866
aF3296.8674026001563
aF4306.869994135554
aF5601.249886697048
aa(lp100
F4248.163663615119
aF3069.7158394760827
aF2151.018612613452
aF1492.0719830272667
aF1092.8759507175164
aF953.4305156841984
aF1073.7356779273164
aF1453.7914374468653
aF2093.5977942428517
aF2993.1547483152685
aF4152.462299664115
aa(lp101
F4304.455440623795
aF3001.181007929207
aF1987.4750727389269
aF1263.3376350529495
aF828.768694871285
aF683.7682521939223
aF828.3363070208694
aF1262.4728593521224
aF1986.1779091876826
aF2999.451456527547
aF4302.293501371721
aa(lp102
F3205.428804775256
aF2181.1330587611205
aF1383.148954136506
aF811.4764909014131
aF466.11566905584385
aF347.0664885997947
aF454.3289495332682
aF787.903051856266
aF1347.7887955687859
aF2133.9861806708245
aF3146.4952071623898
aasg57
(lp103
(lp104
F201233.0476182351
aF187719.30223790547
aF177207.8044745227
aF169698.55432809488
aF165191.55179860487
aF163686.79688606804
aF165184.2895904806
aF169684.029911832
aF177186.0178501396
aF187690.25340538393
aF201196.7365775795
aassS'ctZ_ctZI_2d_weight'
p105
(dp106
g46
(lp107
(lp108
F92198.9245694668
aF91234.2255943618
aF90470.20369318762
aF89906.85886593716
aF89544.1911126132
aF89382.20043321408
aF89420.88682774577
aF89660.25029619817
aF90100.29083857517
aF90741.0084548837
aF91582.40314511629
aF91446.23387494854
aF90482.12999959962
aF89718.70319817688
aF89155.95347067965
aF88793.88081710845
aF88632.48523746154
aF88671.7667317424
aF88911.7252999494
aF89352.36094208407
aF89993.67365814069
aF90835.66344812654
aF90859.41796269482
aF89895.9091870979
aF89133.07748542764
aF88570.92285768331
aF88209.44530386427
aF88048.64482396998
aF88088.5214180071
aF88329.07508596475
aF88770.30582785183
aF89412.21364366334
aF90254.79853340032
aF90438.47683270504
aF89475.56315685657
aF88713.32655493729
aF88151.76702694758
aF87790.88457288449
aF87630.67919274223
aF87671.15088653004
aF87912.29965424187
aF88354.12549588017
aF88996.62841144613
aF89839.80840093445
aF90183.4104849701
aF89221.09190887962
aF88459.45040671714
aF87898.48597847903
aF87538.19862416321
aF87378.58834377499
aF87419.65513731755
aF87661.39900478208
aF88103.81994617447
aF88746.91796148798
aF89590.6930507343
aF90094.21891950534
aF89132.49544316475
aF88371.44904075252
aF87811.07971226687
aF87451.38745770579
aF87292.37227707308
aF87334.03417036406
aF87576.37313758154
aF88019.38917872561
aF88663.08229379762
aF89507.4524827953
aF90170.90213629998
aF89209.77375971188
aF88449.32245705252
aF87889.54822831834
aF87530.45107351277
aF87372.03099263064
aF87414.28798567629
aF87657.22205264549
aF88100.83319354459
aF88745.12140836706
aF89590.08669711805
aF90413.46013535191
aF89452.92685852064
aF88693.07065561177
aF88133.89152663309
aF87775.38947157767
aF87617.56449045267
aF87660.41658324926
aF87903.94574997146
aF88348.15199062199
aF88993.03530519865
aF89838.59569370183
aF90821.89291667203
aF89861.95473959114
aF89102.69363643756
aF88544.10960720807
aF88186.20265190724
aF88028.97277053307
aF88072.41996308125
aF88316.5442295609
aF88761.3455699637
aF89406.82398429098
aF90252.97947254607
aF91396.20048025364
aF90436.85740292397
aF89678.19139952306
aF89120.2024700478
aF88762.89061449941
aF88606.25583287582
aF88650.2981251801
aF88895.01749140899
aF89340.41393156598
aF89986.48744564567
aF90833.23803365351
aF92136.38282609139
aF91177.63484852061
aF90419.56394486927
aF89862.17011514679
aF89505.45335935222
aF89349.41367748618
aF89394.05106953734
aF89639.36553551849
aF90085.35707542943
aF90732.02568926587
aF91579.3713770259
aa(lp109
F40424.392721153505
aF39582.94097143496
aF38912.34380041806
aF38412.60120810348
aF38083.71319449035
aF37925.67975957973
aF37938.50090337005
aF38122.17662586215
aF38476.70692705711
aF39002.091806953154
aF39698.33126555153
aF39727.578734506875
aF38886.41839924707
aF38216.112642690125
aF37716.661464834
aF37388.06486568035
aF37230.322845228664
aF37243.43540347804
aF37427.40254042971
aF37782.224256083
aF38307.9005504387
aF39004.431423495094
aF39186.364184301936
aF38345.49526350228
aF37675.480921402916
aF37176.321158007115
aF36848.0159733124
aF36690.565367318806
aF36703.969340028
aF36888.227891439
aF37243.341021551314
aF37769.308730365476
aF38466.13101788192
aF38800.74907053935
aF37960.17156419779
aF37290.448636558875
aF36791.58028762071
aF36463.566517385436
aF36306.40732585137
aF36320.10271301911
aF36504.65267888988
aF36860.057223461255
aF37386.316346734326
aF38083.430048710026
aF38570.73339321803
aF37730.44730133574
aF37061.015788155935
aF36562.4388536772
aF36234.716497900634
aF36077.84872082588
aF36091.835522453024
aF36276.67690278184
aF36632.372861812495
aF37158.92339954575
aF37856.32851597946
aF38496.31715233889
aF37656.32247491602
aF36987.18237619433
aF36488.89685617454
aF36161.4659148573
aF36004.88955224222
aF36019.16776832823
aF36204.30056311567
aF36560.28793660689
aF37087.12988879776
aF37784.82641969176
aF38577.50034790059
aF37737.79708493654
aF37068.948400674155
aF36570.95429511432
aF36243.81476825692
aF36087.52982010004
aF36102.09945064632
aF36287.5236598926
aF36643.802447841845
aF37170.93581449208
aF37868.92375984506
aF38814.28297990486
aF37974.87113140032
aF37306.31386159727
aF36808.61117049628
aF36481.76305809667
aF36325.7695243998
aF36340.630569404384
aF36526.34619311039
aF36882.916395518725
aF37410.341176628346
aF38108.62053644076
aF39206.665048351395
aF38367.54461430533
aF37699.278758961744
aF37201.8674823194
aF36875.31078437981
aF36719.60866514096
aF36734.76112460496
aF36920.76816276965
aF37277.629779638046
aF37805.3459752065
aF38503.91674947766
aF39754.646553239145
aF38915.817533652174
aF38247.843092768075
aF37750.72323058492
aF37424.45794710333
aF37269.04724232467
aF37284.49111624699
aF37470.7895688725
aF37827.9426001983
aF38355.95021022669
aF39054.812398955946
aF40458.22749456854
aF39619.689889440364
aF38952.006863016526
aF38455.17841529178
aF38129.204546270485
aF37974.08525594993
aF37989.820544331356
aF38176.41041141547
aF38533.854857200524
aF39062.15388168874
aF39761.30748487698
aa(lp110
F26020.505864769075
aF25067.887160093916
aF24306.610577249918
aF23736.676116236762
aF23358.08377705438
aF23170.83355970374
aF23174.92546418393
aF23370.359490494633
aF23757.135638636897
aF24335.25390860976
aF25104.71430041413
aF25199.31807092106
aF24246.38999635094
aF23484.804043612574
aF22914.56021270518
aF22535.658503628467
aF22348.098916383122
aF22351.88145096906
aF22547.006107385012
aF22933.47288563267
aF23511.281785711304
aF24280.432807620677
aF24560.902053157413
aF23607.664608693485
aF22845.769286060327
aF22275.21608525825
aF21896.00500628687
aF21708.136049147142
aF21711.609213837644
aF21906.42450036026
aF22292.581908713073
aF22870.081438897487
aF23638.923090912213
aF24105.25781147882
aF23151.710997120128
aF22389.506304592564
aF21818.64373389619
aF21439.12328503022
aF21250.944957995813
aF21254.108752792123
aF21448.61466942006
aF21834.462707878105
aF22411.652868167756
aF23180.18515028855
aF23832.385345884835
aF22878.529161631643
aF22116.01509920966
aF21544.843158618438
aF21165.01333985803
aF20976.525642929508
aF20979.38006783142
aF21173.576614564263
aF21559.115283128307
aF22135.99607352314
aF22904.218985749394
aF23742.28465637597
aF22788.1191022278
aF22025.295669911375
aF21453.814359425436
aF21073.6751707712
aF20884.87810394752
aF20887.423158954924
aF21081.310335793365
aF21466.53963446305
aF22043.111054963552
aF22811.02459729497
aF23834.955742950875
aF22880.480818908884
aF22117.348016697324
aF21545.55733631736
aF21165.108777768382
aF20976.0023410503
aF20978.238026162893
aF21171.81583310707
aF21556.735761882108
aF22132.997812488375
aF22900.60198492525
aF24110.398605610742
aF23155.614311674235
aF22392.17213956849
aF21820.072089293903
aF21439.3141608503
aF21249.89835423783
aF21251.824669456124
aF21445.093106505614
aF21829.703665386383
aF22405.65634609773
aF23172.951148640263
aF24568.613244355725
aF23613.519580524382
aF22849.768038524184
aF22277.3586183551
aF21896.29132001696
aF21706.566143509877
aF21708.183088833823
aF21901.142155988946
aF22285.44334497487
aF22861.08665579165
aF23628.072088439865
aF25209.599659184572
aF24254.19662545921
aF23490.135713564483
aF22917.4169235009
aF22536.040255268344
aF22346.005708866644
aF22347.313284296477
aF22539.962981556702
aF22923.954800648382
aF23499.28874157061
aF24265.964804323998
aF26033.357850099055
aF25077.645446478993
aF24313.275164689603
aF23740.24700473156
aF23358.56096660455
aF23168.217050308427
aF23169.215255843148
aF23361.555583209196
aF23745.23803240599
aF24320.262603434185
aF25086.629296293213
aa(lp111
F19015.41395996049
aF17632.83052406511
aF16530.246050021076
aF15707.660537828631
aF15165.073987487483
aF14902.486398997964
aF14919.89777235964
aF15217.308107572866
aF15794.71740463746
aF16652.12566355349
aF17789.532884320844
aF17792.822504078245
aF16410.275475661994
aF15307.727409097106
aF14485.178304383518
aF13942.62816152145
aF13680.076980510728
aF13697.524761351538
aF13994.971504043617
aF14572.41720858699
aF15429.861874982134
aF16567.30550322847
aF16843.90417782906
aF15461.393556891508
aF14358.881897805495
aF13536.36920057092
aF12993.85546518776
aF12731.34069165603
aF12748.824879975766
aF13046.308030147009
aF13623.79014216941
aF14481.271216043491
aF15618.751251768734
aF16168.65898121218
aF14786.184767753719
aF13683.709516146671
aF12861.23322639113
aF12318.755898486907
aF12056.277532434126
aF12073.798128232782
aF12371.317685882786
aF12948.836205384423
aF13806.353686737159
aF14943.87012994164
aF15767.086914228052
aF14384.649108248354
aF13282.21026412041
aF12459.770381843788
aF11917.329461418485
aF11654.887502844722
aF11672.4445061224
aF11970.000471251375
aF12547.555398231863
aF13405.109287063755
aF14542.662137747107
aF15639.18797687637
aF14256.786578375826
aF13154.384141726754
aF12331.980666928928
aF11789.576153982844
aF11527.170602887936
aF11544.764013644493
aF11842.35638625248
aF12419.947720711882
aF13277.538017022693
aF14415.1272751851
aF15784.96216915734
aF14402.597178135798
aF13300.231148965651
aF12477.86408164694
aF11935.4959761795
aF11673.126832563787
aF11690.75665079929
aF11988.385430886274
aF12566.013172824549
aF13423.639876614492
aF14561.265542255695
aF16204.409491071083
aF14822.080907528321
aF13719.751285837121
aF12897.420625997363
aF12355.088928009089
aF12092.756191872162
aF12110.42241758665
aF12408.0876051526
aF12985.751754569954
aF13843.41486583875
aF14981.076938958904
aF16897.529942617155
aF15515.23776655349
aF14412.944552341425
aF13590.65029998057
aF13048.355009471223
aF12786.058680813154
aF12803.761314006664
aF13101.462909051625
aF13679.163465947742
aF14536.862984695623
aF15674.56146529484
aF17864.323523795894
aF16482.067755211167
aF15379.8109484781
aF14557.55310359614
aF14015.294220565795
aF13753.034299386758
aF13770.773340059191
aF14068.511342583002
aF14646.248306958378
aF15503.984233185147
aF16641.719121263155
aF19104.790234607433
aF17722.57087350165
aF16620.350474247367
aF15798.129036844466
aF15255.90656129306
aF14993.68304759302
aF15011.458495744386
aF15309.232905747156
aF15887.006277601446
aF16744.778611307105
aF17882.549906864126
aa(lp112
F10163.113239840412
aF9051.93632177234
aF8170.332093848535
aF7518.30055606911
aF7095.841708433943
aF6902.955550943132
aF6939.642083596603
aF7205.901306394393
aF7701.733219336499
aF8427.137822422932
aF9382.115115653702
aF9132.322062854462
aF8021.106284403011
aF7139.463196095942
aF6487.39279793321
aF6064.895089914738
aF5871.970072040595
aF5908.617744310791
aF6174.838106725339
aF6670.631159284132
aF7395.996901987244
aF8350.935334834656
aF8328.737836154252
aF7217.483197319611
aF6335.80124862927
aF5683.691990083165
aF5261.155421681418
aF5068.1915434240145
aF5104.800355310914
aF5370.981857342079
aF5866.736049517613
aF6592.062931837406
aF7546.962504301577
aF7752.360559740018
aF6641.067060522051
aF5759.346251448359
aF5107.198132518984
aF4684.622703733969
aF4491.619965093282
aF4528.189916596833
aF4794.332558244742
aF5290.047890036972
aF6015.335911973508
aF6970.19662405439
aF7403.190233611635
aF6291.857874010333
aF5410.0982045533865
aF4757.91122524073
aF4335.296936072403
aF4142.255337048354
aF4178.786428168645
aF4444.8902094332725
aF4940.566680842188
aF5665.815842395451
aF6620.637694093002
aF7281.226857769108
aF6169.855637784539
aF5288.057107944262
aF4635.83126824833
aF4213.1781186966955
aF4020.0976592893894
aF4056.589890026383
aF4322.654810907708
aF4818.2924219332845
aF5543.502723103278
aF6498.285714417487
aF7386.4704322125035
aF6275.060351844605
aF5393.22296162105
aF4740.958261541777
aF4318.266251606863
aF4125.146931816236
aF4161.600302169945
aF4427.626362667954
aF4923.225113310307
aF5648.396554096958
aF6603.1406850279045
aF7718.920956941636
aF6607.472016190501
aF5725.5957655836455
aF5073.292205121137
aF4650.561334802888
aF4457.403154628981
aF4493.817664599395
aF4759.804864714107
aF5255.364754973139
aF5980.497335376516
aF6935.202605924153
aF8278.57843195682
aF7167.090630822333
aF6285.175519832193
aF5632.83309898633
aF5210.063368284805
aF5016.866327727588
aF5053.241977314727
aF5319.190317046134
aF5814.711346921874
aF6539.8050669419135
aF7494.4714771062845
aF9065.44285725777
aF7953.9161957399965
aF7071.962224366566
aF6419.580943137419
aF5996.77235205257
aF5803.53645111207
aF5839.873240315893
aF6105.782719664008
aF6601.264889156493
aF7326.319748793213
aF8280.947298574307
aF10079.514232844593
aF8967.948710943532
aF8085.955879186844
aF7433.535737574361
aF7010.68828610625
aF6817.413524782471
aF6853.711453602954
aF7119.582072567776
aF7615.025381676919
aF8340.041380930437
aF9294.630070328192
aa(lp113
F7667.231659264921
aF6641.829647795914
aF5829.981424594043
aF5231.686989659358
aF4846.946342991851
aF4675.759484591487
aF4718.126414458314
aF4974.047132592322
aF5443.52163899349
aF6126.549933661821
aF7023.132016597351
aF6702.357065232104
aF5677.127898080431
aF4865.452519195923
aF4267.330928578608
aF3882.763126228459
aF3711.7491121454736
aF3754.28888632968
aF4010.382448781041
aF4480.029799499581
aF5163.230938485316
aF6059.985865738183
aF5949.224052378128
aF4924.167729543835
aF4112.665194976716
aF3514.7164486767592
aF3130.321490643985
aF2959.4803208783655
aF3002.1929393799323
aF3258.4593461486647
aF3728.279541184588
aF4411.6535244876595
aF5308.581296057929
aF5407.832620703119
aF4382.94914218619
aF3571.6194519364285
aF2973.8435499538286
aF2589.6214362384326
aF2418.95311079018
aF2461.8385736091127
aF2718.277824695222
aF3188.270864048508
aF3871.817691668949
aF4768.918307556579
aF5078.182770207002
aF4053.4721360074477
aF3242.315290075054
aF2644.712232409827
aF2260.6629630117845
aF2090.1674818809147
aF2133.225789017204
aF2389.8378844206864
aF2860.0037680913206
aF3543.723440029137
aF4440.996900234148
aF4960.274500889816
aF3935.7367110075975
aF3124.7527093925714
aF2527.3224960447274
aF2143.4460709640543
aF1973.123434150546
aF2016.3545856042053
aF2273.1395253250503
aF2743.478253313069
aF3427.370769568256
aF4324.817074090632
aF5054.10781275152
aF4029.7428671866896
aF3218.9317098890174
aF2621.674340858551
aF2237.9707600952333
aF2067.820967599091
aF2111.224963370137
aF2368.1827474083375
aF2838.6943197137234
aF3522.759680286277
aF4420.378829126017
aF5359.682705792142
aF4335.490604544683
aF3524.8522915643834
aF2927.7677668512692
aF2544.237030405336
aF2374.260082226561
aF2417.836922314952
aF2674.967550670536
aF3145.6519672932855
aF3829.890172183205
aF4727.682165340299
aF5876.9991800116795
aF4852.979923081599
aF4042.5144544186737
aF3445.6027740229165
aF3062.244881894347
aF2892.440778032935
aF2936.190462438709
aF3193.493935111647
aF3664.351196051758
aF4348.762245259052
aF5246.727082733542
aF6606.057235410111
aF5582.210822797389
aF4771.91819845185
aF4175.179362373462
aF3791.9943145622724
aF3622.3630550182256
aF3666.2855837413604
aF3923.761900731684
aF4394.792005989168
aF5079.37589951383
aF5977.513581305643
aF7546.856871987498
aF6523.1833036921635
aF5713.063523663935
aF5116.497531902933
aF4733.485328409107
aF4564.026913182434
aF4608.122286222934
aF4865.77144753063
aF5336.974397105468
aF6021.731134947518
aF6920.041661056702
aa(lp114
F6022.596473988915
aF5098.794254549391
aF4372.47411857103
aF3843.636066053797
aF3512.280096997727
aF3378.40621140281
aF3442.0144092690466
aF3703.1046905964163
aF4161.677055384968
aF4817.731503634654
aF5671.268035345496
aF5143.984224029548
aF4220.2221116995615
aF3493.9420828307175
aF2965.144137423028
aF2633.8282754764837
aF2499.9944969910985
aF2563.642801966868
aF2824.773190403788
aF3283.385662301856
aF3939.4802176610815
aF4793.0568564814575
aF4462.080261704174
aF3538.3582564837097
aF2812.118334724401
aF2283.360496426242
aF1952.0847415892365
aF1818.291070213384
aF1881.9794822986898
aF2143.149977845141
aF2601.802556852735
aF3257.937219321502
aF4111.553965251418
aF3976.8845870127825
aF3053.2026889018516
aF2327.002874252074
aF1798.2851430634537
aF1467.0494953359837
aF1333.2959310696665
aF1397.0244502644953
aF1658.235052920483
aF2116.9277390376187
aF2773.1025086159175
aF3626.7593616553495
aF3688.3971999553837
aF2764.755408953992
aF2038.5957014137455
aF1509.9180773346573
aF1178.7225367167168
aF1045.0090795599338
aF1108.7777058643048
aF1370.028415629821
aF1828.7612088564913
aF2484.9760855443187
aF3338.6730456932887
aF3596.618100531982
aF2673.016416640125
aF1946.8968162094168
aF1418.2592992398572
aF1087.1038657314498
aF953.4305156841984
aF1017.2392490980991
aF1278.5300659731558
aF1737.3029663093557
aF2393.557950106715
aF3247.295017365221
aF3701.5472887425717
aF2777.9857119602493
aF2051.9062186390665
aF1523.3088087790434
aF1192.193482380175
aF1058.5602394424611
aF1122.4090799658882
aF1383.7400039504757
aF1842.553011396211
aF2498.8481023030986
aF3352.625276671158
aF4003.1847645871553
aF3079.663294914362
aF2353.623908702721
aF1825.0666059522343
aF1493.9913866628935
aF1360.3982508347078
aF1424.2871984676785
aF1685.6582295617927
aF2144.511344117065
aF2800.846542133494
aF3654.6638236110634
aF4501.530528065722
aF3578.049165502488
aF2852.0498864003653
aF2323.5326907594113
aF1992.497578579609
aF1858.9445498609527
aF1922.873604603455
aF2184.2847428071072
aF2643.177964471914
aF3299.55326959786
aF4153.410658184971
aF5196.58457917831
aF4273.143323724573
aF3547.184151732014
aF3018.7070632005834
aF2687.7120581303143
aF2554.199136521185
aF2618.168298373227
aF2879.619543686414
aF3338.5528724607466
aF3994.9682846962482
aF4848.865780392877
aF6088.346917924895
aF5164.945769580683
aF4439.02670469764
aF3910.589723275743
aF3579.634825315012
aF3446.1620108154225
aF3510.1712797769824
aF3771.6626321997037
aF4230.636068083596
aF4887.091587428597
aF5741.029190234782
aa(lp115
F6371.407949154081
aF5342.465674161507
aF4532.769181029003
aF3942.3184697565866
aF3571.1135403442486
aF3419.1543927919924
aF3486.4410270998105
aF3772.9734432677033
aF4278.75164129568
aF5003.775621183732
aF5948.045382931897
aF5386.699187067195
aF4357.761237166103
aF3548.06906912509
aF2957.6226829441653
aF2586.4220786233286
aF2434.467256162567
aF2501.7582155618798
aF2788.2949568212725
aF3294.0774799407463
aF4019.105784920301
aF4963.379871759942
aF4620.795379235187
aF3591.861754425609
aF2782.173911476091
aF2191.7318503866663
aF1820.5355711573168
aF1668.585073788041
aF1735.880358278859
aF2022.4214246297454
aF2528.208272840719
aF3253.240902911757
aF4197.5193148428925
aF4073.6965256580997
aF3044.7672259400047
aF2235.0837080819983
aF1644.645972084058
aF1273.4540179462044
aF1121.507845668431
aF1188.8074552507376
aF1475.3528466931223
aF1981.1440199955907
aF2706.1809751581327
aF3650.463712180757
aF3745.4026263359237
aF2716.4776517093173
aF1906.7984589428045
aF1316.365048036361
aF945.1774189900028
aF793.2355718037243
aF860.539506477525
aF1147.089223011407
aF1652.8847214053683
aF2377.9260016594
aF3322.2130637735363
aF3635.9136812686397
aF2606.993031733533
aF1797.3181640585046
aF1206.8890782435703
aF835.705774288705
aF683.7682521939223
aF751.0765119592198
aF1037.630553584593
aF1543.4303770700512
aF2268.4759824155904
aF3212.7673696212055
aF3745.2296904562572
aF2716.313366012656
aF1906.6428234291247
aF1316.21806270568
aF945.0390838423124
aF793.1058868390272
aF860.4184716958176
aF1146.9768384126914
aF1652.7809869896407
aF2377.8309174266738
aF3322.1266297237844
aF4073.3506538987845
aF3044.4386545466814
aF2234.7724370546466
aF1644.3520014226976
aF1273.1773476508258
aF1121.2484757390334
aF1188.5653856873203
aF1475.128077495691
aF1980.9365511641388
aF2705.9908066926646
aF3650.290844081268
aF4620.276571596222
aF3591.368897335614
aF2781.7070049350737
aF2191.2908943946177
aF1820.1205657142398
aF1668.196018893948
aF1735.517253933731
aF2022.0842708335936
aF2527.8970695935313
aF3252.955650213566
aF4197.26001269366
aF5386.007443548575
aF4357.104094379448
aF3547.4465270704104
aF2957.03474162145
aF2585.8687380325655
aF2433.948516303762
aF2501.274076435049
aF2787.8454184264115
aF3293.6625422778416
aF4018.725447989349
aF4963.034135560955
aF6370.543269755814
aF5341.644245678201
aF4531.991003460655
aF3941.5835431031883
aF3570.421864605798
aF3418.5059679684923
aF3485.835853191258
aF3772.411520274119
aF4278.232969217042
aF5003.300200020068
aF5947.613212683161
aa(lp116
F4710.789249844485
aF3919.8450791938876
aF3303.284234886163
aF2861.1067169213097
aF2593.3125252993186
aF2499.901660020202
aF2580.874121083948
aF2836.229908490569
aF3265.96902224005
aF3870.091462332409
aF4648.597228767629
aF3931.672242243412
aF3140.7832522435983
aF2524.2775885866495
aF2082.155251272575
aF1814.416240301364
aF1721.060555673021
aF1802.08819738755
aF2057.499165444942
aF2487.2934598452066
aF3091.4710805883365
aF3870.032027674332
aF3326.6922696738984
aF2535.858460324858
aF1919.4079773186888
aF1477.3408206553897
aF1209.6569903349555
aF1116.3564863573927
aF1197.4393087226965
aF1452.9054574308682
aF1882.7549324819095
aF2486.9877338758165
aF3265.603861612595
aF2895.8493321359256
aF2105.070703437667
aF1488.6754010822776
aF1046.6634250697523
aF779.0347754000969
aF685.7894520733099
aF766.927455089392
aF1022.4487844483417
aF1452.3534401501595
aF2056.641422194846
aF2835.3127305823987
aF2639.143429629504
aF1848.4199815820234
aF1232.0798598774109
aF790.1230645156647
aF522.5495954967873
aF429.35945282077836
aF510.5526364876374
aF766.1291464973631
aF1196.0889828499564
aF1800.432145545421
aF2579.158634583757
aF2556.574562154636
aF1765.9062947579278
aF1149.6213537040949
aF707.7197389931265
aF440.2014506250267
aF347.0664885997947
aF428.31485291743076
aF683.9465435779372
aF1113.9615605813092
aF1718.35990392755
aF2497.141573616662
aF2648.1427297113128
aF1857.5296429653815
aF1241.2998825623251
aF799.4534485021355
aF531.9903407848134
aF438.9105594103601
aF520.2141043787735
aF775.9009756900576
aF1205.9711733442057
aF1810.4246973412255
aF2589.261547681112
aF2913.8479322995377
aF2123.2900262043836
aF1507.1154464521076
aF1065.3241930426937
aF797.91626597615
aF704.8916652524739
aF786.250390871664
aF1041.992442833726
aF1472.1178211386557
aF2076.626525786449
aF2855.5185567771123
aF3353.6901699193113
aF2563.1874444749405
aF1947.0680453734376
aF1505.3319726148
aF1237.9792261990349
aF1145.0098061261333
aF1226.423712396107
aF1482.220945008941
aF1912.4015039646501
aF2516.965389263222
aF3295.912600904667
aF3967.669442570634
aF3177.221897777041
aF2561.157679326315
aF2119.4767872184593
aF1852.1792214534685
aF1759.2649820313472
aF1840.7340689520956
aF2096.5864822157073
aF2526.822221822191
aF3131.4412877715476
aF3910.443680063763
aF4755.785750253509
aF3965.3933861106916
aF3349.384348310743
aF2907.7586368536577
aF2640.516251739449
aF2547.6571929681068
aF2629.1814605396335
aF2885.089054454027
aF3315.379974711286
aF3920.054221311408
aF4699.111794254417
aasg57
(lp117
(lp118
F212594.3756874412
aF203572.75522743101
aF196428.24517380112
aF191160.84552656513
aF187770.55628570705
aF186257.37745124148
aF186621.30902315947
aF188862.35100146622
aF192980.50338616752
aF198975.76617723895
aF206848.139374699
aF204462.98796588212
aF195442.21465445284
aF188298.55174941095
aF183031.99925075943
aF179642.55715848514
aF178130.22547259642
aF178495.0041930915
aF180736.8933199865
aF184855.892853257
aF190852.00279292164
aF198725.22313896325
aF198138.11817712276
aF189118.1920142848
aF181975.3762578222
aF176709.670907748
aF173321.07596406317
aF171809.59142675396
aF172175.21729583567
aF174417.95357130852
aF178537.80025316018
aF184534.75734139906
aF192408.8248360238
aF193619.7663211852
aF184600.68730691486
aF177458.71869903486
aF172193.86049754632
aF168806.11270243934
aF167295.47531371703
aF167661.94833138233
aF169905.53175543604
aF174026.22558587661
aF180024.02982270054
aF187898.94446590194
aF190907.9323980461
aF181889.70053236117
aF174748.57907306298
aF169484.5680201521
aF166097.6673736334
aF164587.87713349643
aF164955.1972997375
aF167199.6278723795
aF171321.1688513898
aF177319.82023679678
aF185195.58202858892
aF190002.61640770204
aF180985.23169061376
aF173844.95737989366
aF168581.79347556364
aF165195.73997762805
aF163686.79688606804
aF164054.96420089647
aF166300.24192211113
aF170422.63004971473
aF176422.1285836983
aF184298.73752407098
aF190903.81835017964
aF181887.28078166032
aF174747.8536195298
aF169485.53686378658
aF166100.33051442314
aF164592.23457145438
aF164961.2490348597
aF167207.37390466526
aF171330.60918084858
aF177330.95486341816
aF185208.41095236872
aF193611.53822546147
aF184595.84780552218
aF177457.26779198123
aF172195.7981848103
aF168811.438984035
aF167304.19018964158
aF167674.05180163804
aF169921.02382001383
aF174045.10624478816
aF180046.2990759373
aF187924.6023134725
aF198125.7760335417
aF189110.93276219175
aF181973.19989721346
aF176712.5774386386
aF173329.0653864438
aF171822.66374063422
aF172193.37250122035
aF174441.19166818127
aF178566.12124152758
aF184568.16122126605
aF192447.3116073796
aF204446.53177443787
aF195432.53565166882
aF188295.64993528233
aF183035.87462527983
aF179653.20972166493
aF178147.65522445066
aF178519.21113360848
aF180767.8774491452
aF184893.65417108237
aF190896.5412993923
aF198776.53883409634
aF212573.8054481307
aF203560.65647394414
aF196424.61790614334
aF191165.6897447309
aF187783.87198969678
aF186279.16464105016
aF186651.56769879142
aF188901.08116291655
aF193027.70503343272
aF199031.43931033098
aF206912.283993608
aassS'param'
p119
(dp120
g46
(dp121
S'var'
p122
S'pt'
p123
sS'bins'
p124
(lp125
F20.0
aF35.0
aF50.0
aF70.0
aF100.0
aF130.0
aF165.0
aF200.0
aF250.0
aF300.0
assg57
(dp126
g122
g123
sg124
(lp127
F20.0
aF300.0
asssS'sm_weight'
p128
(dp129
g46
(lp130
F87292.37227707308
aF36004.88955224222
aF20884.87810394752
aF11527.170602887936
aF4020.0976592893894
aF1973.123434150546
aF953.4305156841984
aF683.7682521939223
aF347.0664885997947
asg57
(lp131
F163686.79688606804
assS'nev'
p132
(dp133
g46
(lp134
I265381
aI108010
aI62481
aI34974
aI12613
aI6483
aI3225
aI2504
aI1331
asg57
(lp135
I497002
assb.