(dp0
S'ref_point'
p1
(dp2
S'ctZI'
p3
S'4'
p4
sS'ctW'
p5
g4
sS'ctWI'
p6
g4
sS'ctZ'
p7
g4
ssS'rw_dict'
p8
(dp9
S'ctZ_0p_ctZI_0p_ctW_0p_ctWI_0p'
p10
I0
sS'ctZ_0p_ctZI_2p_ctW_0p_ctWI_0p'
p11
I9
sS'ctZ_1p_ctZI_1p_ctW_0p_ctWI_0p'
p12
I6
sS'ctZ_0p_ctZI_1p_ctW_0p_ctWI_0p'
p13
I2
sS'ctZ_0p_ctZI_1p_ctW_0p_ctWI_1p'
p14
I11
sS'ctZ_0p_ctZI_0p_ctW_0p_ctWI_1p'
p15
I4
sS'ctZ_0p_ctZI_0p_ctW_1p_ctWI_1p'
p16
I13
sS'ctZ_1p_ctZI_0p_ctW_0p_ctWI_0p'
p17
I1
sS'ctZ_2p_ctZI_0p_ctW_0p_ctWI_0p'
p18
I5
sS'ctZ_0p_ctZI_0p_ctW_1p_ctWI_0p'
p19
I3
sS'ctZ_1p_ctZI_0p_ctW_0p_ctWI_1p'
p20
I8
sS'ctZ_0p_ctZI_1p_ctW_1p_ctWI_0p'
p21
I10
sS'ctZ_0p_ctZI_0p_ctW_0p_ctWI_2p'
p22
I14
sS'ctZ_0p_ctZI_0p_ctW_2p_ctWI_0p'
p23
I12
sS'ctZ_1p_ctZI_0p_ctW_1p_ctWI_0p'
p24
I7
ssS'order'
p25
(dp26
g25
I2
ss.